
u-boot：     文件格式 elf32-tradlittlemips
u-boot
体系结构：mips:isa32r2， 标志 0x00000050：
HAS_SYMS, DYNAMIC
起始地址 0x03900000

程序头：
    PHDR off    0x00000034 vaddr 0x00010034 paddr 0x00000000 align 2**2
         filesz 0x000000a0 memsz 0x000000a0 flags r-x
  INTERP off    0x00044c0c vaddr 0x03944b2c paddr 0x03944b2c align 2**0
         filesz 0x00000013 memsz 0x00000013 flags r--
    LOAD off    0x000000e0 vaddr 0x03900000 paddr 0x03900000 align 2**4
         filesz 0x000457d8 memsz 0x000457d8 flags rwx
 DYNAMIC off    0x00044b4c vaddr 0x03944a6c paddr 0x03944a6c align 2**2
         filesz 0x000000c0 memsz 0x000000c0 flags rwx
    NULL off    0x00000000 vaddr 0x00000000 paddr 0x00000000 align 2**2
         filesz 0x00000000 memsz 0x00000000 flags ---

动态节：
  HASH                 0x03944c40
  STRTAB               0x03942efc
  SYMTAB               0x0394112c
  STRSZ                0x00001b6e
  SYMENT               0x00000010
  DEBUG                0x00000000
  TEXTREL              0x00000000
  PLTGOT               0x0393e910
  REL                  0x0393f698
  RELSZ                0x000019c0
  RELENT               0x00000008
  MIPS_RLD_VERSION     0x00000001
  MIPS_FLAGS           0x00000002
  MIPS_BASE_ADDRESS    0x03900000
  MIPS_LOCAL_GOTNO     0x0000022b
  MIPS_SYMTABNO        0x000001dd
  MIPS_UNREFEXTNO      0x00000018
  MIPS_GOTSYM          0x000001dd

版本定义：
0 0x00 0x00000000 <corrupt>
私有标志 = 70001007： [abi=O32] [mips32r2] [非 32位模式] [noreorder] [PIC] [CPIC]

节：
Idx Name          Size      VMA       LMA       File off  Algn
  0 .text         00032cf0  03900000  03900000  000000e0  2**4
                  CONTENTS, ALLOC, LOAD, CODE
  1 .rodata       00009e54  03932cf0  03932cf0  00032dd0  2**4
                  CONTENTS, ALLOC, LOAD, READONLY, DATA
  2 .data         00001db8  0393cb50  0393cb50  0003cc30  2**4
                  CONTENTS, ALLOC, LOAD, DATA
  3 .got          000008ac  0393e910  0393e910  0003e9f0  2**4
                  CONTENTS, ALLOC, LOAD, DATA
  4 .u_boot_list  000004dc  0393f1bc  0393f1bc  0003f29c  2**2
                  CONTENTS, ALLOC, LOAD, DATA
  5 .dynsym       00001dd0  0394112c  0394112c  0004120c  2**2
                  CONTENTS, ALLOC, LOAD, READONLY, DATA
  6 .rel.dyn      000019c0  0393f698  0393f698  0003f778  2**2
                  CONTENTS, ALLOC, LOAD, READONLY, DATA
  7 .BIN_END      00000004  03941128  03941128  00041208  2**2
                  CONTENTS, ALLOC, LOAD, DATA
  8 .bss          00136708  0393f698  0393f698  00000000  2**5
                  ALLOC
  9 .dynstr       00001b6e  03942efc  03942efc  00042fdc  2**0
                  CONTENTS, ALLOC, LOAD, READONLY, DATA
 10 .dynamic      000000c0  03944a6c  03944a6c  00044b4c  2**2
                  CONTENTS, ALLOC, LOAD, READONLY, DATA
 11 .interp       00000013  03944b2c  03944b2c  00044c0c  2**0
                  CONTENTS, ALLOC, LOAD, READONLY, DATA
 12 .gnu          00000100  03944b40  03944b40  00044c20  2**2
                  CONTENTS, ALLOC, LOAD, READONLY, DATA
 13 .hash         00000b98  03944c40  03944c40  00044d20  2**2
                  CONTENTS, ALLOC, LOAD, READONLY, DATA
 14 .comment      00000036  00000000  00000000  000458b8  2**0
                  CONTENTS, READONLY
 15 .debug_line   00016afb  00000000  00000000  000458ee  2**0
                  CONTENTS, READONLY, DEBUGGING
 16 .debug_info   000626c9  00000000  00000000  0005c3e9  2**0
                  CONTENTS, READONLY, DEBUGGING
 17 .debug_abbrev 00010c03  00000000  00000000  000beab2  2**0
                  CONTENTS, READONLY, DEBUGGING
 18 .debug_aranges 00002570  00000000  00000000  000cf6b8  2**3
                  CONTENTS, READONLY, DEBUGGING
 19 .debug_ranges 00007248  00000000  00000000  000d1c28  2**3
                  CONTENTS, READONLY, DEBUGGING
 20 .debug_frame  000073f4  00000000  00000000  000d8e70  2**2
                  CONTENTS, READONLY, DEBUGGING
 21 .debug_str    00013115  00000000  00000000  000e0264  2**0
                  CONTENTS, READONLY, DEBUGGING
 22 .debug_loc    00038de3  00000000  00000000  000f3379  2**0
                  CONTENTS, READONLY, DEBUGGING
SYMBOL TABLE:
03900000 l    d  .text	00000000 .text
03932cf0 l    d  .rodata	00000000 .rodata
0393cb50 l    d  .data	00000000 .data
0393e910 l    d  .got	00000000 .got
0393f1bc l    d  .u_boot_list	00000000 .u_boot_list
0393f698 l    d  .rel.dyn	00000000 .rel.dyn
03941128 l    d  .BIN_END	00000000 .BIN_END
0393f698 l    d  .bss	00000000 .bss
0394112c l    d  .dynsym	00000000 .dynsym
03942efc l    d  .dynstr	00000000 .dynstr
03944a6c l    d  .dynamic	00000000 .dynamic
03944b2c l    d  .interp	00000000 .interp
03944b40 l    d  .gnu	00000000 .gnu
03944c40 l    d  .hash	00000000 .hash
00000000 l    d  .comment	00000000 .comment
00000000 l    d  .debug_line	00000000 .debug_line
00000000 l    d  .debug_info	00000000 .debug_info
00000000 l    d  .debug_abbrev	00000000 .debug_abbrev
00000000 l    d  .debug_aranges	00000000 .debug_aranges
00000000 l    d  .debug_ranges	00000000 .debug_ranges
00000000 l    d  .debug_frame	00000000 .debug_frame
00000000 l    d  .debug_str	00000000 .debug_str
00000000 l    d  .debug_loc	00000000 .debug_loc
00000000 l    df *ABS*	00000000 arch/mips/cpu/mips32/start.o
03900390 l       .text	00000000 reset
03900194 l       .text	00000000 _start_nvt_end
039004d4 l       .text	00000000 in_ram
00000000 l    df *ABS*	00000000 board/novatek/nvt-na51023/na51023evb.c
03900580 l     F .text	0000068c nvt_handle_fw_auto
00000000 l    df *ABS*	00000000 board/novatek/nvt-na51023/na51023_utils.c
03900e98 l     F .text	000002cc nvt_on_partition_enum_copy_to_dest
03901164 l     F .text	000001a4 nvt_on_itron_partition_enum_copy_to_dest
03901408 l     F .text	00000230 nvt_runfw_bin_unpack_to_dest.constprop.1
03901638 l     F .text	000000a8 nvt_runfw_bin_chk_valid.constprop.2
039016e0 l     F .text	000005fc nvt_boot_itron_bin_auto
03932da8 l     O .rodata	00000019 __func__.4594
00000000 l    df *ABS*	00000000 board/novatek/nvt-na51023/nvt_common.c
03902e3c l     F .text	000002e8 nvt_modelext_init_bininfo_replace
03932dc4 l     O .rodata	00000013 __func__.5250
03932d64 l     O .rodata	00000011 __FUNCTION__.5297
00000000 l    df *ABS*	00000000 board/novatek/nvt-na51023/nvtpack.c
0390424c l     F .text	000000fc nvtpack_get_uitron_offset
03932d48 l     O .rodata	00000010 GUID_FW2
03932d38 l     O .rodata	00000010 GUID_FW
00000000 l    df *ABS*	00000000 /home/sda3/share2/2019-6-10/950_672_2053_20190531/NA51023_BSP/include/modelext/bin_info.h
00000000 l    df *ABS*	00000000 board/novatek/nvt-na51023/gxdsp.c
00000000 l    df *ABS*	00000000 board/novatek/nvt-na51023/drv/interrupt.c
00000000 l    df *ABS*	00000000 board/novatek/nvt-na51023/nvt_ipc.c
00000000 l    df *ABS*	00000000 board/novatek/nvt-na51023/drv/pinmux.c
03904be0 l     F .text	00000054 pinmux_config_tv
0393f6f4 l     O .bss	00000010 disp_pinmux_config
03904c34 l     F .text	00000058 pinmux_config_lcd
03904c8c l     F .text	000001fc pinmux_config_audio
03904e88 l     F .text	000007e8 pinmux_config_pwm
03905670 l     F .text	000002f0 pinmux_config_eth
03905960 l     F .text	000000d8 pinmux_config_remote
03905a38 l     F .text	000005b0 pinmux_config_spi
03905fe8 l     F .text	000004c0 pinmux_config_uart
039064a8 l     F .text	0000022c pinmux_config_sif
039066d4 l     F .text	0000013c pinmux_config_i2c
03906810 l     F .text	00000194 pinmux_config_mipi_lvds
039069a4 l     F .text	00000160 pinmux_config_sensor2
0393f708 l     O .bss	00000020 mipi_lvds_sensor
03906b04 l     F .text	00000718 pinmux_config_sensor
0390721c l     F .text	000000fc pinmux_config_nand
03907318 l     F .text	000000d4 pinmux_config_sdio3
039073ec l     F .text	000000e8 pinmux_config_sdio2
039074d4 l     F .text	000000dc pinmux_config_sdio
0393f704 l     O .bss	00000004 mi_display
0393cbb0 l     O .data	00000044 pinmux_config_hdl
00000000 l    df *ABS*	00000000 board/novatek/nvt-na51023/nvt_fw_update.c
03907858 l     F .text	00000034 MemCheck_CalcCheckSum16Bit
0390788c l     F .text	000000b4 nvt_read_partitions
03907940 l     F .text	00000238 nvt_on_partition_enum_mtd_readback
03932df4 l     O .rodata	0000001a __func__.5814
03907b78 l     F .text	000000e0 nvt_update_partitions
03907c58 l     F .text	00000268 nvt_on_partition_enum_update
03932dd8 l     O .rodata	0000001c __func__.5803
03908440 l     F .text	00000084 nvt_on_partition_enum_sanity
0393cbf4 l     O .data	00000004 should_rename.5961
03932e10 l     O .rodata	0000001e __func__.5963
0393f748 l     O .bss	00000020 ldr_fw_name.5967
0393f728 l     O .bss	00000020 ota_fw_name.5968
03932e30 l     O .rodata	00000011 __func__.5972
03932e44 l     O .rodata	0000000e __func__.6019
00000000 l    df *ABS*	00000000 board/novatek/nvt-na51023/cc/cc.c
00000000 l    df *ABS*	00000000 board/novatek/nvt-na51023/drv/pll.c
00000000 l    df *ABS*	00000000 board/novatek/nvt-na51023/drv/dma.c
00000000 l    df *ABS*	00000000 board/novatek/nvt-na51023/drv/pmc.c
00000000 l    df *ABS*	00000000 board/novatek/nvt-na51023/dsp/dsp.c
00000000 l    df *ABS*	00000000 board/novatek/nvt-na51023/drv/iocfg.c
00000000 l    df *ABS*	00000000 board/novatek/nvt-na51023/drv/rtc.c
039340a8 l     O .rodata	00000008 rtc_day_of_year
00000000 l    df *ABS*	00000000 board/novatek/nvt-na51023/drv/pwm.c
00000000 l    df *ABS*	00000000 
00000000 l    df *ABS*	00000000 arch/mips/cpu/mips32/cpu.c
00000000 l    df *ABS*	00000000 arch/mips/cpu/mips32/interrupts.c
00000000 l    df *ABS*	00000000 arch/mips/cpu/mips32/time.c
0393f768 l     O .bss	00000004 timestamp
00000000 l    df *ABS*	00000000 
00000000 l    df *ABS*	00000000 arch/mips/cpu/mips32/nvt-na51023/na51023_serial.c
03909a28 l     F .text	00000030 na51023_serial_setbrg
03909a58 l     F .text	00000010 na51023_serial_tstc
03909a68 l     F .text	00000074 na51023_serial_putc
03909adc l     F .text	00000044 na51023_serial_getc
03909b20 l     F .text	00000100 na51023_serial_init
0393cbf8 l     O .data	00000030 na51023_serial_drv
00000000 l    df *ABS*	00000000 
00000000 l    df *ABS*	00000000 arch/mips/lib/board.c
03909c38 l     F .text	0000003c display_banner
03909c74 l     F .text	00000054 init_baudrate
03909cc8 l     F .text	00000094 init_func_ram
00000000 l    df *ABS*	00000000 arch/mips/lib/io.c
00000000 l    df *ABS*	00000000 arch/mips/lib/bootm.c
0390a0ac l     F .text	0000009c linux_cmdline_set
0393f780 l     O .bss	00000004 linux_argv
0393f784 l     O .bss	00000004 linux_argc
0393f77c l     O .bss	00000004 linux_argp
0390a148 l     F .text	00000358 boot_cmdline_linux
0390a4a0 l     F .text	00000104 linux_env_set
0393f770 l     O .bss	00000004 linux_env_idx
0393f778 l     O .bss	00000004 linux_env
0393f774 l     O .bss	00000004 linux_env_p
0390a5a4 l     F .text	000001fc boot_prep_linux
0390a7a0 l     F .text	00000068 boot_jump_linux.isra.0
00000000 l    df *ABS*	00000000 
00000000 l    df *ABS*	00000000 common/main.c
00000000 l    df *ABS*	00000000 common/command.c
0393f1bc l     O .u_boot_list	00000000 start.3352
0393f1bc l     O .u_boot_list	00000000 start.3348
0393f670 l     O .u_boot_list	00000000 end.3355
0393f788 l     O .bss	00000200 tmp_buf.3369
0393f988 l     O .bss	00000400 tmp_buf
0393f1bc l     O .u_boot_list	00000000 start.3383
0393f1bc l     O .u_boot_list	00000000 start.3379
0393f670 l     O .u_boot_list	00000000 end.3386
03932d20 l     O .rodata	00000016 CSWTCH.66
00000000 l    df *ABS*	00000000 common/exports.c
0390b5b8 l     F .text	00000008 dummy
00000000 l    df *ABS*	00000000 common/hash.c
00000000 l    df *ABS*	00000000 common/cli_simple.c
0393fd88 l     O .bss	00000400 lastcommand.3405
00000000 l    df *ABS*	00000000 common/cli.c
00000000 l    df *ABS*	00000000 common/cli_readline.c
0390bfc8 l     F .text	00000150 delete_char.part.0
03933584 l     O .rodata	00000004 erase_seq
0393caf8 l     O .rodata	00000009 tab_seq
0390c118 l     F .text	00000158 cread_add_char
03940188 l     O .bss	00000004 initted.3481
039451f8 l     O .bss	00000004 hist_max
039451a0 l     O .bss	00000050 hist_list
039451f4 l     O .bss	00000004 hist_add_idx
0393cc50 l     O .data	00000004 hist_cur
039451f0 l     O .bss	00000004 hist_num
0394018c l     O .bss	00005014 hist_lines
00000000 l    df *ABS*	00000000 common/s_record.c
00000000 l    df *ABS*	00000000 common/xyzModem.c
00000000 l    df *ABS*	00000000 /home/sda3/share2/2019-6-10/950_672_2053_20190531/NA51023_BSP/u-boot/arch/mips/include/asm/types.h
00000000 l    df *ABS*	00000000 common/autoboot.c
039451fc l     O .bss	00000004 stored_bootdelay
00000000 l    df *ABS*	00000000 common/cmd_boot.c
0390d140 l     F .text	000000b8 do_go
00000000 l    df *ABS*	00000000 common/cmd_bootm.c
0393ce9c l     O .data	000000e0 cmd_bootm_sub
0393cc54 l     O .data	00000245 bootm_help_text
00000000 l    df *ABS*	00000000 common/bootm.c
00000000 l    df *ABS*	00000000 common/bootm_os.c
0390de30 l     F .text	000000a8 copy_args
0390ded8 l     F .text	00000078 do_bootm_rtems
0390df50 l     F .text	00000120 do_bootm_plan9
0390e070 l     F .text	000000ac do_bootm_standalone
0390e11c l     F .text	00000188 do_bootm_netbsd
0393cf7c l     O .data	00000060 boot_os
00000000 l    df *ABS*	00000000 common/cmd_help.c
0390e374 l     F .text	00000070 do_help
0393f1bc l     O .u_boot_list	00000000 start.3303
0393f1bc l     O .u_boot_list	00000000 start.3299
0393f670 l     O .u_boot_list	00000000 end.3306
00000000 l    df *ABS*	00000000 common/cmd_version.c
0390e3e4 l     F .text	00000078 do_version
00000000 l    df *ABS*	00000000 common/env_attr.c
0393346c l     O .rodata	00000003 delims.3406
00000000 l    df *ABS*	00000000 common/env_callback.c
0390e83c l     F .text	0000000c clear_callback
0390e848 l     F .text	000000a8 find_env_callback
0393f698 l     O .u_boot_list	00000000 end.3445
0393f670 l     O .u_boot_list	00000000 start.3442
0393f670 l     O .u_boot_list	00000000 start.3449
0390e8f0 l     F .text	00000080 on_callbacks
0390e970 l     F .text	000000bc set_callback
0393cfdc l     O .data	00000004 first_call
03945200 l     O .bss	00000004 callback_list
00000000 l    df *ABS*	00000000 common/env_flags.c
0390eb40 l     F .text	0000000c clear_flags
0390eb4c l     F .text	00000080 on_flags
0390ecf0 l     F .text	000000e4 set_flags
0393357c l     O .rodata	00000005 env_flags_vartype_rep
03933574 l     O .rodata	00000005 env_flags_varaccess_rep
03933564 l     O .rodata	00000010 env_flags_varaccess_mask
0393cfe0 l     O .data	00000004 first_call
03945204 l     O .bss	00000004 flags_list
00000000 l    df *ABS*	00000000 common/env_nowhere.c
00000000 l    df *ABS*	00000000 common/cmd_fat.c
0390f224 l     F .text	00000038 do_fat_ls
0390f25c l     F .text	000000e8 do_fat_fsinfo
0390f344 l     F .text	00000178 do_fat_fswrite
0390f4bc l     F .text	00000140 do_fat_fsrename
0390f5fc l     F .text	00000138 do_fat_fsrm
00000000 l    df *ABS*	00000000 common/cmd_exfat.c
0390f76c l     F .text	00000038 do_exfat_ls
0390f7a4 l     F .text	000000e8 do_exfat_fsinfo
0390f88c l     F .text	00000178 do_exfat_fswrite
0390fa04 l     F .text	00000138 do_exfat_fsrm
0390fb3c l     F .text	00000140 do_exfat_fsrename
0390fc7c l     F .text	00000034 do_write_wrapper
0390fcb0 l     F .text	00000034 do_rm_wrapper
0390fce4 l     F .text	00000034 do_rename_wrapper
00000000 l    df *ABS*	00000000 /home/sda3/share2/2019-6-10/950_672_2053_20190531/NA51023_BSP/u-boot/arch/mips/include/asm/types.h
00000000 l    df *ABS*	00000000 common/cmd_mem.c
0390fd18 l     F .text	0000012c do_mem_mw
03945208 l     O .bss	00000004 base_address
0390fe44 l     F .text	00000154 do_mem_loop
0390ff98 l     F .text	00000148 do_mem_md
03945218 l     O .bss	00000004 dp_last_addr
03945214 l     O .bss	00000004 dp_last_size
0393cfe4 l     O .data	00000004 dp_last_length
039100e0 l     F .text	000001e0 do_mem_cmp
039102c0 l     F .text	0000006c do_mem_base
0391032c l     F .text	00000148 do_mem_cp
03910474 l     F .text	00000068 do_mem_crc
039104dc l     F .text	00000208 mod_mem.isra.2
03945210 l     O .bss	00000004 mm_last_addr
0394520c l     O .bss	00000004 mm_last_size
039106e4 l     F .text	0000001c do_mem_mm
03910700 l     F .text	0000001c do_mem_nm
00000000 l    df *ABS*	00000000 common/cmd_mmc.c
0391071c l     F .text	00000130 do_mmcops
0393cfe8 l     O .data	000000fc cmd_mmc
0393d0e4 l     O .data	00000004 curr_device
0391084c l     F .text	00000090 init_mmc_device
039108dc l     F .text	00000040 do_mmc_rescan
0391091c l     F .text	00000034 do_mmc_list
03910950 l     F .text	00000188 do_mmc_dev
03910ad8 l     F .text	000000a0 do_mmc_part
03910b78 l     F .text	00000164 do_mmc_erase
03910cdc l     F .text	0000018c do_mmc_write
03910e68 l     F .text	00000168 do_mmc_read
03910fd0 l     F .text	000002d0 do_mmcinfo
039112a0 l     F .text	00000100 do_mmc_setdsr
00000000 l    df *ABS*	00000000 common/cmd_mtdparts.c
039113a0 l     F .text	00000078 part_delall
03911418 l     F .text	000000c4 memsize_parse
039114dc l     F .text	000000d8 mtd_part_info
039115b4 l     F .text	00000090 memsize_format
03911644 l     F .text	000000e8 index_partitions
03945228 l     O .bss	00000008 devices
0391172c l     F .text	00000120 current_save
03945238 l     O .bss	00000010 last_partition
0391184c l     F .text	00000168 part_sort_add
039119b4 l     F .text	000000bc device_del
03911a70 l     F .text	000003a4 generate_mtdparts_save.constprop.7
03945248 l     O .bss	00000200 last_parts
03911e14 l     F .text	000000b0 device_delall.constprop.9
03911ec4 l     F .text	0000004c mtd_devices_init
03911f10 l     F .text	000000d4 get_mtd_info.constprop.10
03911fe4 l     F .text	00000440 part_validate
03912478 l     F .text	000006ac device_parse
03945230 l     O .bss	00000008 mtdids
0394521c l     O .bss	00000004 initialized.4107
03945448 l     O .bss	00000080 last_ids
03913798 l     F .text	0000013c do_chpart
039138d4 l     F .text	00000800 do_mtdparts
0393d0e8 l     O .data	000004d3 mtdparts_help_text
00000000 l    df *ABS*	00000000 /home/sda3/share2/2019-6-10/950_672_2053_20190531/NA51023_BSP/u-boot/arch/mips/include/asm/types.h
00000000 l    df *ABS*	00000000 common/cmd_sf.c
039140d4 l     F .text	00000074 bytes_per_second
03914148 l     F .text	00000960 do_spi_flash
039454c8 l     O .bss	00000004 flash
00000000 l    df *ABS*	00000000 /home/sda3/share2/2019-6-10/950_672_2053_20190531/NA51023_BSP/u-boot/arch/mips/include/asm/types.h
00000000 l    df *ABS*	00000000 common/splash.c
00000000 l    df *ABS*	00000000 common/cmd_nvedit.c
03914aa8 l     F .text	000000ec do_env_delete
0393d800 l     O .data	00000004 env_id
03914b94 l     F .text	000000b8 do_env
0393d758 l     O .data	000000a8 cmd_env_sub
03914c4c l     F .text	00000100 env_print
03914d4c l     F .text	0000013c do_env_print
03914e88 l     F .text	0000032c do_env_import
03932d98 l     O .rodata	0000000e __func__.3964
039151b4 l     F .text	000000c8 do_env_default
0391527c l     F .text	00000234 _do_env_set.isra.1
039154b0 l     F .text	00000034 do_env_set
03915610 l     F .text	0000034c do_env_export
03932d88 l     O .rodata	0000000e __func__.3927
0393d5bc l     O .data	0000019b env_help_text
00000000 l    df *ABS*	00000000 common/env_common.c
03932d78 l     O .rodata	00000010 __func__.3525
00000000 l    df *ABS*	00000000 common/console.c
039160a0 l     F .text	000000e0 console_setfile
039454d0 l     O .bss	00000004 ctrlc_disabled
039454cc l     O .bss	00000004 ctrlc_was_pressed
03916664 l     F .text	00000114 on_console
00000000 l    df *ABS*	00000000 common/dlmalloc.c
0393d81c l     O .data	00000408 av_
0393d814 l     O .data	00000004 sbrk_base
039454d4 l     O .bss	00000028 current_mallinfo
0393d818 l     O .data	00000004 trim_threshold
03945504 l     O .bss	00000004 top_pad
03945500 l     O .bss	00000004 max_sbrked_mem
039454fc l     O .bss	00000004 max_total_mem
00000000 l    df *ABS*	00000000 common/image.c
03917778 l     F .text	00000058 on_loadaddr
0393dd5c l     O .data	0000006c uimage_os
0393ddc8 l     O .data	00000120 uimage_arch
0393dc6c l     O .data	000000f0 uimage_type
0393dc24 l     O .data	00000048 uimage_comp
00000000 l    df *ABS*	00000000 common/memsize.c
00000000 l    df *ABS*	00000000 common/stdio.c
03945524 l     O .bss	0000003c devs
00000000 l    df *ABS*	00000000 
00000000 l    df *ABS*	00000000 disk/part.c
0393def4 l     O .data	00000018 block_drvr
00000000 l    df *ABS*	00000000 disk/part_dos.c
039192ec l     F .text	000000b4 test_block_type
039193a0 l     F .text	00000338 print_partition_extended
039196d8 l     F .text	000003b0 get_partition_info_extended.constprop.2
00000000 l    df *ABS*	00000000 
00000000 l    df *ABS*	00000000 /home/sda3/share2/2019-6-10/950_672_2053_20190531/NA51023_BSP/u-boot/arch/mips/include/asm/types.h
00000000 l    df *ABS*	00000000 
00000000 l    df *ABS*	00000000 drivers/rtc/date.c
0393df0c l     O .data	00000030 month_days
00000000 l    df *ABS*	00000000 
00000000 l    df *ABS*	00000000 
00000000 l    df *ABS*	00000000 drivers/mmc/mmc.c
03919dd4 l     F .text	00000024 mmc_set_ios
03919df8 l     F .text	000000e0 mmc_set_capacity
03919f64 l     F .text	0000007c mmc_go_idle
03919fe0 l     F .text	000000bc mmc_send_op_cond_iter
0391a09c l     F .text	00000060 mmc_send_ext_csd
0391a23c l     F .text	00000080 mmc_switch.constprop.8
03945560 l     O .bss	00000008 mmc_devices
0391a378 l     F .text	000001e8 mmc_bread
0391a720 l     F .text	00000f40 mmc_startup
03933fb4 l     O .rodata	00000040 multipliers
039335c0 l     O .rodata	00000010 fbase
0393cb2c l     O .rodata	00000018 widths.3790
039336a4 l     O .rodata	00000018 latchs.3791
03933588 l     O .rodata	00000018 ext_csd_bits.3788
039335a0 l     O .rodata	00000020 ext_to_hostcaps.3789
0393df3c l     O .data	00000004 cur_dev_num
03932d58 l     O .rodata	0000000c __FUNCTION__.3861
00000000 l    df *ABS*	00000000 drivers/mmc/sdhci.c
00000000 l    df *ABS*	00000000 drivers/mmc/mmc_write.c
00000000 l    df *ABS*	00000000 drivers/mmc/na51023_mmc.c
0391c514 l     F .text	00000040 sdiohost_getreg
0391c554 l     F .text	00000040 sdiohost_setreg
0391c594 l     F .text	00000090 sdiohost_setinputdelay
0391c624 l     F .text	000000f0 pad_setdrivingsink
0391c714 l     F .text	00000140 sdiohost_setpaddriving
0391c854 l     F .text	00000008 mmc_host_reset
0391c85c l     F .text	00000008 mmc_host_getcd
0391c864 l     F .text	0000005c sdiohost_setphyclkindly.constprop.2
0391cd3c l     F .text	00000184 host_set_ios
0394556c l     O .bss	00000004 cur_clk.4410
0391db18 l     F .text	000001c8 host_request
03945568 l     O .bss	00000004 cur_clk.4393
0393df58 l     O .data	00000009 dev_name_0
0393df4c l     O .data	00000009 dev_name_1
0393df40 l     O .data	00000009 dev_name_2
0393df64 l     O .data	00000014 nvt_hsmmc_ops
00000000 l    df *ABS*	00000000 
00000000 l    df *ABS*	00000000 drivers/mtd/mtdcore.c
00000000 l    df *ABS*	00000000 drivers/mtd/mtdpart.c
0391e548 l     F .text	000000cc part_erase
00000000 l    df *ABS*	00000000 
00000000 l    df *ABS*	00000000 drivers/mtd/nvt_flash_spi/nand_cmd.c
0391e6ac l     F .text	00000048 led_set_gpio_high.isra.0
0391e6f4 l     F .text	00000044 led_set_gpio_low
0391e738 l     F .text	00000090 led_flicker
0391e99c l     F .text	000000c0 spiflash_wait_ready
0391ea5c l     F .text	0000008c spiflash_enable_write_latch
0391eae8 l     F .text	0000008c spiflash_disable_write_latch
0391eb74 l     F .text	00000358 spiflash_page_program
03932e6c l     O .rodata	00000019 __func__.6064
0391f290 l     F .text	000003a0 spiflash_read_data
0391f630 l     F .text	0000038c spinor_pio_operation
03932e54 l     O .rodata	00000016 __func__.6050
00000000 l    df *ABS*	00000000 drivers/mtd/nvt_flash_spi/nand_host.c
00000000 l    df *ABS*	00000000 
00000000 l    df *ABS*	00000000 drivers/mtd/spiflash/spinor.c
039201d8 l     F .text	00000008 spi_flash_mtd_sync
039201e0 l     F .text	00000090 spi_flash_mtd_write
03920270 l     F .text	00000090 spi_flash_mtd_read
039204cc l     F .text	000000b8 spi_flash_mtd_erase
03920584 l     F .text	00000070 nvt_spinor_status_ops
03945580 l     O .bss	00000008 spi_flash_dev_name
039340b0 l     O .rodata	00000005 spi_read_cmds_array
00000000 l    df *ABS*	00000000 
00000000 l    df *ABS*	00000000 drivers/serial/serial.c
03920ff8 l     F .text	00000064 get_current
03945588 l     O .bss	00000004 serial_current
0394558c l     O .bss	00000004 serial_devices
03921274 l     F .text	0000015c on_baudrate
00000000 l    df *ABS*	00000000 
00000000 l    df *ABS*	00000000 fs/fs.c
03921534 l     F .text	00000038 fs_probe_unsupported
0392156c l     F .text	00000008 fs_ls_unsupported
03921574 l     F .text	00000008 fs_exists_unsupported
0392157c l     F .text	00000008 fs_read_unsupported
03921584 l     F .text	00000008 fs_write_unsupported
0392158c l     F .text	00000008 fs_close_unsupported
03921594 l     F .text	00000044 fs_get_info
0393e890 l     O .data	00000078 fstypes
039215d8 l     F .text	00000050 fs_close
03945590 l     O .bss	00000004 fs_type
03921628 l     F .text	00000038 fs_rm_unsupported
03921660 l     F .text	00000038 fs_rename_unsupported
039455e4 l     O .bss	00000004 fs_dev_desc
03945594 l     O .bss	00000050 fs_partition
00000000 l    df *ABS*	00000000 fs/fat/fat.c
039220a0 l     F .text	0000004c downcase
03922138 l     F .text	0000004c disk_read
039456a0 l     O .bss	00000004 cur_dev
03945600 l     O .bss	00000050 cur_part_info
039221d0 l     F .text	000001b4 get_fatent
03922384 l     F .text	00000064 mkcksum
039223e8 l     F .text	00000064 check_overflow
039455f8 l     O .bss	00000004 total_sector
0392244c l     F .text	0000009c disk_write
03922584 l     F .text	000000d0 flush_fat_buffer
039455f4 l     O .bss	00000001 num_of_fats
03922654 l     F .text	00000170 set_fatent_value
039227c4 l     F .text	0000025c get_fatent_value
03922a20 l     F .text	000000d4 clear_fatent
03922af4 l     F .text	00000208 get_cluster
03922f04 l     F .text	00000118 get_name
0392301c l     F .text	0000012c set_cluster
03923148 l     F .text	00000280 set_contents
039233c8 l     F .text	00000190 read_bootsectandvi
03923558 l     F .text	000001b8 set_name
03923710 l     F .text	000000c4 slot2str
039237d4 l     F .text	00000260 get_vfatname
03923a34 l     F .text	00000644 remove_directory_entry
039455ec l     O .bss	00000004 dir_curclust
03924078 l     F .text	00000248 do_fat_rm
039242c0 l     F .text	000004e0 find_directory_entry.isra.3
039455e8 l     O .bss	00000004 empty_dentptr
039247a0 l     F .text	00000174 flush_dir_table.constprop.7
03924914 l     F .text	000002f8 fill_dir_slot.constprop.6
03924c0c l     F .text	00000490 do_fat_write
0392509c l     F .text	0000041c do_fat_rename
00000000 l    df *ABS*	00000000 fs/fat/file.c
00000000 l    df *ABS*	00000000 
00000000 l    df *ABS*	00000000 fs/exfat/exfat.c
039220ec l     F .text	0000004c downcase
03922184 l     F .text	0000004c disk_read
039456a4 l     O .bss	00000004 cur_dev
03945650 l     O .bss	00000050 cur_part_info
03926830 l     F .text	0000005c set_checksum
0392688c l     F .text	000000e8 exslot2str
039224e8 l     F .text	0000009c disk_write
039455fc l     O .bss	00000004 total_sector
03926974 l     F .text	00000068 flush_exfat_buffer
03922cfc l     F .text	00000208 get_cluster
039269dc l     F .text	0000011c read_exbootsectandvi
03926af8 l     F .text	000000e8 set_exfatname
03926be0 l     F .text	000000f0 set_namehash
03926cd0 l     F .text	0000014c get_exfatent
03926e1c l     F .text	00000204 get_exfatname
03927020 l     F .text	000001c8 find_exfatdirent.isra.2
039455f0 l     O .bss	00000004 dir_curclust
039271e8 l     F .text	0000012c set_cluster.constprop.5
03927314 l     F .text	00000398 remove_exfatdirent
039456a8 l     O .bss	00000004 exdentptr_remove
039276ac l     F .text	0000053c do_exfat_rm
03927be8 l     F .text	00000728 write_exfatdirent
03928310 l     F .text	0000047c do_exfat_rename
039456ac l     O .bss	00000004 empty_exdentptr
0392878c l     F .text	000002e8 do_exfat_write.isra.3
00000000 l    df *ABS*	00000000 
00000000 l    df *ABS*	00000000 
00000000 l    df *ABS*	00000000 lib/lzma/LzmaDec.c
03929738 l     F .text	000000a0 LzmaDec_WriteRem
039297d8 l     F .text	00000ed4 LzmaDec_DecodeReal2
0392a6ac l     F .text	0000070c LzmaDec_TryDummy
0392b21c l     F .text	000000a0 LzmaDec_AllocateProbs2
00000000 l    df *ABS*	00000000 lib/lzma/LzmaTools.c
0392b538 l     F .text	00000018 SzFree
0392b550 l     F .text	00000018 SzAlloc
00000000 l    df *ABS*	00000000 
00000000 l    df *ABS*	00000000 lib/lzo/lzo1x_decompress.c
03933f3c l     O .rodata	00000009 lzop_magic
00000000 l    df *ABS*	00000000 
00000000 l    df *ABS*	00000000 lib/zlib/zutil.c
03933efc l     O .rodata	0000003e lext.3696
03933494 l     O .rodata	00000040 dext.3698
039333a8 l     O .rodata	00000040 dbase.3697
039336bc l     O .rodata	0000003e lbase.3695
039336fc l     O .rodata	00000800 lenfix
039334e4 l     O .rodata	00000080 distfix
0393405c l     O .rodata	00000026 order.3791
00000000 l    df *ABS*	00000000 
00000000 l    df *ABS*	00000000 lib/crc7.c
00000000 l    df *ABS*	00000000 lib/crc8.c
00000000 l    df *ABS*	00000000 lib/crc16.c
00000000 l    df *ABS*	00000000 lib/gunzip.c
00000000 l    df *ABS*	00000000 lib/initcall.c
00000000 l    df *ABS*	00000000 lib/lmb.c
0392e88c l     F .text	000001a8 lmb_add_region
00000000 l    df *ABS*	00000000 lib/ldiv.c
00000000 l    df *ABS*	00000000 lib/md5.c
0392ecf0 l     F .text	00000040 byteReverse
0392ed30 l     F .text	00000a88 MD5Transform
0392f7b8 l     F .text	00000180 MD5Update
0392f938 l     F .text	00000160 MD5Final
00000000 l    df *ABS*	00000000 lib/net_utils.c
00000000 l    df *ABS*	00000000 lib/qsort.c
00000000 l    df *ABS*	00000000 lib/strmhz.c
00000000 l    df *ABS*	00000000 lib/hashtable.c
0392fca8 l     F .text	00000024 cmpkey
0392fccc l     F .text	00000090 _hdelete.isra.1
0392fd5c l     F .text	0000009c drop_var_from_set.part.2
0392fdf8 l     F .text	00000080 match_string.isra.3
00000000 l    df *ABS*	00000000 lib/errno.c
00000000 l    df *ABS*	00000000 lib/display_options.c
03933ff4 l     O .rodata	00000006 names.3517
00000000 l    df *ABS*	00000000 lib/crc32.c
03932fa8 l     O .rodata	00000400 crc_table
00000000 l    df *ABS*	00000000 lib/ctype.c
00000000 l    df *ABS*	00000000 lib/div64.c
00000000 l    df *ABS*	00000000 lib/hang.c
00000000 l    df *ABS*	00000000 lib/linux_string.c
00000000 l    df *ABS*	00000000 lib/string.c
00000000 l    df *ABS*	00000000 lib/time.c
00000000 l    df *ABS*	00000000 lib/vsprintf.c
03931d08 l     F .text	00000270 put_dec
03931f78 l     F .text	00000348 number.isra.1
039334d4 l     O .rodata	00000010 digits.3405
039456b4 l     O .bss	00000016 local.3532
00000000 l    df *ABS*	00000000 
00000000 l    df *ABS*	00000000 
00000000 l       *UND*	00000000 
03932cb0 l     F .text	00000040 __ashldi3
03944a6c l     O *ABS*	00000000 _DYNAMIC
00000000 l     F *UND*	00000000 NetReceive
00000000 l     F *UND*	00000000 phy_connect
00000000 l     F *UND*	00000000 phy_config
00000000 l     F *UND*	00000000 eth_register
00000000 l     F *UND*	00000000 mdio_register
0004112c l       *ABS*	00000000 uboot_bin_size
00000000 l     F *UND*	00000000 pinmux_activeDSP2IOP
03932c60 l     F .text	00000044 __lshrdi3
00000000 l     F *UND*	00000000 pinmux_activeDSPIOP
00000000 l     F *UND*	00000000 phy_startup
0393f698 l       .rel.dyn	00000000 __init_end
00000000 l     F *UND*	00000000 mdio_alloc
00000000 l     F *UND*	00000000 pinmux_activeDSPPERI
00000000 l     F *UND*	00000000 pinmux_activeDSP2PERI
0393e910 l     O *ABS*	00000000 _GLOBAL_OFFSET_TABLE_
0394112c l       .BIN_END	00000000 _end
00000000 l     F *UND*	00000000 timer_read_counter
03945cd8 g     O .bss	00000004 info
03945710 g     O .bss	00000401 console_buffer
03918510 g     F .text	0000007c stdio_clone
0391caf8 g     F .text	00000038 nvt_clk_set_rate
03931cbc g     F .text	0000004c mdelay
039317c8 g     F .text	00000024 strcpy
0391689c g     F .text	0000015c console_init_r
03901e20 g     F .text	000009c4 do_nvt_boot_cmd
03904128 g     F .text	000000b4 nvt_get_cpu_os_type
0390a808 g     F .text	0000002c arch_lmb_reserve
03903660 g     F .text	000000f8 lz_uncompress
03921ab0 g     F .text	000002b0 do_load
0393f698 g       .rel.dyn	00000000 __rel_dyn_start
0391c9cc g     F .text	00000078 sdiohost_setclkcmdtype
03929538 g     F .text	0000007c file_exfat_read_at
039456cc g     O .bss	00000004 top_reg9
039099b8 g     F .text	00000034 __udelay
0390a974 g     F .text	00000108 find_cmd_tbl
0392014c g     F .text	00000018 nand_hostConfigChipSelOperationMode
0393cb04  w    O .rodata	00000028 version_string
0391d354 g     F .text	0000005c sdiohost_clrfifoen
0391c30c g     F .text	00000208 mmc_bwrite
0390bd04 g     F .text	000000c0 cli_simple_loop
0392669c g     F .text	0000006c file_fat_write
0392017c g     F .text	0000005c nand_host_settiming2
03945da0 g     O .bss	00040000 get_exdentunused_block
039255e0 g     F .text	00000d64 do_fat_read_at
03918414 g     F .text	00000018 stdio_serial_puts
039163e8 g     F .text	0000007c printf
03912b24 g     F .text	00000190 mtd_id_parse
039325b0 g     F .text	000005a0 vsprintf
039315a8 g     F .text	00000114 __div64_32
0393d804 g     O .data	00000010 env_htab
039205f4 g     F .text	00000070 nvt_spinor_write_status
03930f30 g     F .text	00000084 hwalk_r
00000000       O *UND*	00000000 _gp_disp
0393f6a8 g     O .bss	00000004 SDIO_SDR50_MODE_DATA_DRIVING
0390be64 g     F .text	00000038 run_command
03920020 g     F .text	00000008 nand_host_check_ready
039294ec g     F .text	0000004c exfat_exists
0391bcb0  w    F .text	00000008 cpu_mmc_init
0393f4cc g     O .u_boot_list	0000001c _u_boot_list_2_cmd_2_nm
03903b10 g     F .text	0000041c nvt_board_init
03909910 g     F .text	00000024 invalidate_dcache_range
03921a48 g     F .text	00000068 fs_rm
0390d3e0 g     F .text	00000a50 do_bootm_states
03931738 g     F .text	00000090 strim
03917a10 g     F .text	00000094 getenv_bootm_size
03908f74 g     F .text	000002c0 nvt_fw_update
0391a680 g     F .text	00000068 mmc_getcd
039165dc g     F .text	00000088 console_assign
0394557c g     O .bss	00000004 RESTORE_GPIO_DIR
0390984c g     F .text	0000001c dcache_enable
03931ae4 g     F .text	00000058 memmove
0392e7ac g     F .text	000000e0 gunzip
0390b73c g     F .text	00000104 hash_command
0393f574 g     O .u_boot_list	0000001c _u_boot_list_2_cmd_2_printenv
03928a74 g     F .text	000000f4 exfat_set_blk_dev
0390f1c0 g     F .text	00000008 env_relocate_spec
0000022b g       *ABS*	00000000 num_got_entries
0391dce0 g     F .text	0000062c nvt_mmc_init
03932460 g     F .text	0000004c simple_strtol
0392ae0c g     F .text	000003dc LzmaDec_DecodeToDic
03941128 g     O .BIN_END	00000004 gBinEnd
039456d0 g     O .bss	00000004 top_reg3
039316bc g     F .text	00000040 hang
03901cdc g     F .text	00000078 do_nvt_booti_cmd
03917c50 g     F .text	00000280 image_print_contents
03920fd8 g     F .text	00000010 serial_stub_getc
03919bd4 g     F .text	00000114 GregorianDay
0393df78 g     O .data	00000918 spi_flash_params_table
0390a028 g     F .text	00000084 _machine_restart
03915b4c g     F .text	00000098 getenv
0392b68c g     F .text	0000067c lzo1x_decompress_safe
0393f520 g     O .u_boot_list	0000001c _u_boot_list_2_cmd_2_nvt_booti
039456b0 g     O .bss	00000004 errno
0392adb8 g     F .text	00000034 LzmaDec_InitDicAndState
039200bc g     F .text	00000044 nand_hostSetupAddressCycle
0393f6cc g     O .bss	00000004 nvt_bin_name_modelext
03985da0 g     O .bss	00040000 get_exdentfromdir_block
0393f504 g     O .u_boot_list	0000001c _u_boot_list_2_cmd_2_nvt_bootd
03901da0 g     F .text	00000080 parsing_sdio_driving
03900460 g     F .text	00000110 relocate_code
03945708 g     O .bss	00000004 monitor_flash_len
0392cf08 g     F .text	000016f0 inflate
0393f6ec g     O .bss	00000004 nvt_binfo_comm_core1_start
03946900 g       *ABS*	00000000 _gp
0392e5f8 g     F .text	00000024 gzalloc
03945b14 g     O .bss	00000004 save_addr
039456d4 g     O .bss	00000004 top_reg4
0393f494 g     O .u_boot_list	0000001c _u_boot_list_2_cmd_2_mtdparts
039300e0 g     F .text	00000520 hsearch_r
0392fb44 g     F .text	00000148 qsort
0393f6d8 g     O .bss	00000004 nvt_binfo_comm_fw_update_len
0390d130  w    F .text	00000010 do_go_exec
0390ea2c g     F .text	00000114 env_callback_init
0391d334 g     F .text	00000020 sdiohost_setstatus
039316fc g     F .text	0000003c skip_spaces
039097c4 g     F .text	00000048 mips_cache_reset
039162d8 g     F .text	00000044 getc
03920664 g     F .text	000000f8 spi_flash_mtd_register
0394550c g     O .bss	00000004 mem_malloc_end
039c5da0 g     O .bss	00040000 do_exfat_read_at_block
03931a6c g     F .text	00000078 memcpy
03918dc4 g     F .text	00000528 get_device_and_partition
0390f1ec g     F .text	00000038 do_fat_fsload
0393f248 g     O .u_boot_list	0000001c _u_boot_list_2_cmd_2_crc32
03920f98 g     F .text	00000010 serial_stub_start
0391ff88 g     F .text	00000098 nand_host_transmit_data
03909710 g     F .text	00000058 mips_init_icache
03917b8c g     F .text	00000024 get_table_entry_name
03916584 g     F .text	00000058 search_device
0393f5e4 g     O .u_boot_list	0000001c _u_boot_list_2_cmd_2_rm
03917ef8 g     F .text	00000008 genimg_has_config
039456d8 g     O .bss	00000004 top_reg7
03912f04 g     F .text	00000894 mtdparts_init
039098bc g     F .text	00000030 flush_cache
0392b568 g     F .text	00000124 lzmaBuffToBuffDecompress
0393f6c8 g     O .bss	00000004 p_ldinfo_reserve
03919b90 g     F .text	00000044 get_partition_info_dos
039163a4 g     F .text	00000044 puts
0391858c g     F .text	0000007c stdio_register_dev
0391cc4c g     F .text	00000038 sdiohost_getrdy
0393f328 g     O .u_boot_list	0000001c _u_boot_list_2_cmd_2_fatinfo
0393f29c g     O .u_boot_list	0000001c _u_boot_list_2_cmd_2_exfatload
0392bf0c g     F .text	00000590 inflate_fast
0392971c g     F .text	0000001c file_exfat_rm
0393f698 g       .rel.dyn	00000000 __image_copy_end
03916e24 g     F .text	000006bc malloc
0391d504 g     F .text	00000044 sdiohost_getshortrsp
03945c50 g     O .bss	00000008 mtd_partitions
03900000 g     F .text	00000194 _start_nvt
0391bcb8 g     F .text	000000b8 print_mmc_devices
03918444 g     F .text	00000018 stdio_serial_tstc
0390946c g     F .text	00000008 sdio_power_cycle
03909e6c g     F .text	00000064 initr_spiflash
0393cc28 g     O .data	00000028 init_sequence
0393f6ac g     O .bss	00000004 SDIO_SDR50_MODE_CLK_DRIVING
0390aabc g     F .text	0000009c cmd_usage
03901308 g     F .text	00000100 do_nvt_update_all_cmd
0392fff0 g     F .text	000000f0 hmatch_r
03918c24 g     F .text	000001a0 get_device
0393f6d4 g     O .bss	00000004 nvt_bin_name
03915a18 g     F .text	00000134 getenv_f
0392adec g     F .text	00000020 LzmaDec_Init
0391e3b4 g     F .text	000000b4 get_mtd_device_nm
03900c80 g     F .text	00000078 board_mmc_init
0393f360 g     O .u_boot_list	0000001c _u_boot_list_2_cmd_2_fatls
039027e4 g     F .text	00000658 nvt_flash_mtdpart_config
0390bdc4 g     F .text	000000a0 cli_simple_run_command_list
0390a904  w    F .text	00000008 show_boot_progress
0391ca44 g     F .text	00000040 pll_get_sdioclock_rate
0391a2bc g     F .text	0000005c mmc_set_blocklen
03915ccc g     F .text	00000040 env_get_char
03917bd8 g     F .text	00000028 genimg_get_arch_name
03921238 g     F .text	0000003c serial_setbrg
039214d0 g     F .text	00000064 default_serial_puts
0391d110 g     F .text	00000208 sdiohost_setupdatatransferdma
0393f5ac g     O .u_boot_list	0000001c _u_boot_list_2_cmd_2_rename
0393f6bc g     O .bss	00000004 SDIO_DS_MODE_CMD_DRIVING
03920164 g     F .text	00000018 nand_hostSetCSActive
0392fe78 g     F .text	000000c0 hcreate_r
03919ee0 g     F .text	00000068 mmc_getwp
03909a20 g     F .text	00000008 get_tbclk
0390a90c g     F .text	00000068 main_loop
03919f50 g     F .text	00000014 mmc_send_cmd
0390eef4 g     F .text	000002cc env_flags_validate
039211b4 g     F .text	0000003c serial_initialize
0393f638 g     O .u_boot_list	0000001c _u_boot_list_2_cmd_2_version
03917f00 g     F .text	00000344 boot_get_ramdisk
03945224 g     O .bss	00000004 current_mtd_dev
0391845c g     F .text	00000018 stdio_get_list
0393f264 g     O .u_boot_list	0000001c _u_boot_list_2_cmd_2_env
03945574 g     O .bss	00000004 flicker_count
039161b8 g     F .text	00000038 ftstc
03a75da0 g       .bss	00000000 __bss_end
03945514 g     O .bss	00000004 load_addr
039177d0 g     F .text	00000080 image_check_hcrc
039084c4 g     F .text	000000e8 nvt_check_should_rename_updfw
03920450 g     F .text	0000007c nvt_spinor_write_ops
03915c58  w    F .text	00000010 env_get_char_spec
03912cb4 g     F .text	00000250 find_dev_and_part
03945578 g     O .bss	00000004 flicker_base
0393f6e8 g     O .bss	00000004 nvt_binfo_comm_core2_start
03909ed0 g     F .text	00000158 board_init_r
0392ea94 g     F .text	0000005c lmb_overlaps_region
0393f398 g     O .u_boot_list	0000001c _u_boot_list_2_cmd_2_fatrm
03909960 g     F .text	00000058 get_timer
0393f6a4 g     O .bss	00000004 SDIO_SDR50_MODE_CMD_DRIVING
03945b18 g     O .bss	00000004 env_ptr
03920fe8 g     F .text	00000010 serial_stub_tstc
03918474 g     F .text	0000009c stdio_get_by_name
039267dc g     F .text	00000054 file_fat_rm
03931908 g     F .text	00000028 strnlen
0392075c g     F .text	00000824 spi_flash_probe
0391da00 g     F .text	000000bc sdiohost_sendsdcmd
0391a6e8 g     F .text	00000038 mmc_set_clock
039292d8 g     F .text	00000048 do_exfat_read
039254b8 g     F .text	00000128 fat_set_blk_dev
039265a4 g     F .text	0000007c file_fat_read_at
03921794 g     F .text	00000074 fs_ls
0392ff38 g     F .text	000000b8 hdestroy_r
0390beb4 g     F .text	000000f4 run_command_list
0390adf8 g     F .text	000005ec cmd_auto_complete
03918620 g     F .text	000000c4 stdio_init
039174e0 g     F .text	0000010c calloc
039098ec g     F .text	00000024 flush_dcache_range
0390346c g     F .text	000001f4 nvt_modelext_init
0391cb30 g     F .text	0000011c sdiohost_setbusclk
03903ae8 g     F .text	00000028 nvt_check_is_fw_update_fw
0391842c g     F .text	00000018 stdio_serial_getc
03909944 g     F .text	0000001c timer_init
03909870 g     F .text	0000004c do_reset
03901d54 g     F .text	0000004c do_nvt_bootd_cmd
0393f4e8 g     O .u_boot_list	0000001c _u_boot_list_2_cmd_2_nvt_boot
03915d70 g     F .text	00000064 getenv_default
0392ea5c g     F .text	0000001c lmb_add
039311a8 g     F .text	00000278 print_buffer
03917bb0 g     F .text	00000028 genimg_get_os_name
0391c8e4 g     F .text	00000070 sdiohost_enclkout
03945570 g     O .bss	00000004 led_on
03916264 g     F .text	00000074 fprintf
0393f2f0 g     O .u_boot_list	0000001c _u_boot_list_2_cmd_2_exfatrm
0391631c g     F .text	00000044 tstc
03917c00 g     F .text	00000028 genimg_get_type_name
0390e2a4  w    F .text	00000008 arch_preboot_os
03920fc8 g     F .text	00000010 serial_stub_puts
0393f6b4 g     O .bss	00000004 SDIO_HS_MODE_DATA_DRIVING
039333e8 g     O .rodata	00000084 default_environment
0392cbf0 g     F .text	00000318 adler32
03932c0c g     F .text	00000050 simple_itoa
03931818 g     F .text	00000038 strcat
0392bef4 g     F .text	00000018 zcfree
0390bfa8 g     F .text	00000018 cli_loop
0393f440 g     O .u_boot_list	0000001c _u_boot_list_2_cmd_2_mm
03904924 g     F .text	00000064 int_set_config
03916464 g     F .text	00000060 vprintf
03917ed0 g     F .text	00000020 genimg_get_format
0393f2b8 g     O .u_boot_list	0000001c _u_boot_list_2_cmd_2_exfatls
03900e08 g     F .text	00000090 do_nvt_bootm_cmd
03903758 g     F .text	000000e4 get_part
0391bad4 g     F .text	00000168 mmc_init
03915c68 g     F .text	00000030 env_get_addr
0391cc84 g     F .text	000000b8 sdiohost_reset
03917c28 g     F .text	00000028 genimg_get_comp_name
039456dc g     O .bss	00000004 top_reg_sgpio0
03900c4c g     F .text	00000034 board_early_init_f
039456e0 g     O .bss	00000004 top_reg2
03920fb8 g     F .text	00000010 serial_stub_putc
0392140c g     F .text	0000003c serial_tstc
0391fed0 g     F .text	00000024 nand_host_send_command
0390aa7c g     F .text	00000040 find_cmd
0393f654 g     O .u_boot_list	0000001c _u_boot_list_2_cmd_2_write
0393f3ec g     O .u_boot_list	0000001c _u_boot_list_2_cmd_2_help
0390d1f8 g     F .text	0000015c do_bootm
03930718 g     F .text	00000398 hexport_r
03930ab0 g     F .text	00000480 himport_r
0391fd88 g     F .text	00000148 nand_host_setup_transfer
0391d028 g     F .text	00000020 sdiohost_setdatatimeout
03921d60 g     F .text	000000ac do_ls
0391c954 g     F .text	00000078 sdiohost_setclktype
0393f4b0 g     O .u_boot_list	0000001c _u_boot_list_2_cmd_2_mw
0393155c g     F .text	00000034 crc32
0392e634 g     F .text	00000178 zunzip
03929630 g     F .text	00000064 file_exfat_write
03945c58 g     O .bss	00000080 mtd_table
0391b784 g     F .text	00000350 mmc_start_init
03917850 g     F .text	00000064 image_check_dcrc
03915be4 g     F .text	00000074 getenv_ulong
0391c0b0 g     F .text	0000025c mmc_berase
03900380 g     O .text	00000000 _start
03945b1c g     O .bss	00000130 images
03931b74 g     F .text	000000cc strstr
03929694 g     F .text	0000006c exfat_write_file
03919b2c g     F .text	00000064 print_part_dos
039456e4 g     O .bss	00000004 top_reg_cgpio0
0392b35c g     F .text	000000a4 LzmaDec_AllocateProbs
03915dd4 g     F .text	000000f0 set_default_env
03921e0c g     F .text	0000012c do_write
0390c270 g     F .text	00000cac cli_readline_into_buffer
03921448 g     F .text	00000048 serial_putc
0393f6a0 g     O .bss	00000004 SDIO_SDR104_MODE_CLK_DRIVING
03921870 g     F .text	000000b8 fs_read
0390cf3c g     F .text	00000088 bootdelay_process
03920370 g     F .text	000000e0 nvt_spinor_erase_ops
03915f40 g     F .text	00000160 env_complete
039456e8 g     O .bss	00000004 top_reg_dgpio0
03930600 g     F .text	00000118 hdelete_r
03916a94 g     F .text	00000038 mem_malloc_init
03909c20  w    F .text	00000018 default_serial_console
0393187c g     F .text	0000003c strncmp
03900570 g     O .text	00000000 lowlevel_init
0392b1e8 g     F .text	00000034 LzmaDec_FreeProbs
0390edd4 g     F .text	00000120 env_flags_init
0390383c g     F .text	00000010 nvt_disable_mem_protect
03900300 g     O .text	00000080 gHeadInfo
03918804 g     F .text	00000260 dev_print
0391fd68 g     F .text	00000020 spiflash_boot_detect
039456ec g     O .bss	00000004 top_reg5
039317ec g     F .text	0000002c strncpy
03931c40 g     F .text	0000007c udelay
0391bca0 g     F .text	00000010 mmc_set_dsr
039154e4 g     F .text	00000078 setenv
0390e2ac g     F .text	000000a4 boot_selected_os
0390d3c8 g     F .text	00000018 bootm_disable_interrupts
03900c14 g     F .text	00000038 checkboard
03945510 g     O .bss	00000004 mem_malloc_start
039164c4 g     F .text	00000090 ctrlc
03908790 g     F .text	0000007c nvt_create_delfw
03919a88 g     F .text	000000a4 test_part_dos
03909234 g     F .text	000000a0 cc_sendCore1CMD
03926344 g     F .text	00000048 do_fat_read
0390b3e4 g     F .text	00000094 cmd_get_data_size
03932b8c g     F .text	00000080 panic
0390ebcc g     F .text	00000094 env_flags_parse_vartype
03915f14 g     F .text	0000002c env_relocate
03917b24 g     F .text	00000068 genimg_print_time
0393f30c g     O .u_boot_list	0000001c _u_boot_list_2_cmd_2_exfatwrite
03921140 g     F .text	00000074 serial_assign
039323a4 g     F .text	000000bc strict_strtoul
0392c9d0 g     F .text	00000074 inflateReset
03931b3c g     F .text	00000038 memcmp
0391cec0 g     F .text	00000168 sdiohost_resetdata
0393f61c g     O .u_boot_list	0000001c _u_boot_list_2_cmd_2_sf
03917ac8 g     F .text	0000005c genimg_print_size
03916acc g     F .text	00000110 malloc_trim
03926694 g     F .text	00000008 fat_close
039179b4 g     F .text	0000005c getenv_bootm_low
0391e30c g     F .text	000000a8 add_mtd_device
03926538 g     F .text	00000020 file_fat_ls
03926558 g     F .text	0000004c fat_exists
03917ef0 g     F .text	00000008 genimg_get_image
03904a90 g     F .text	00000150 nvt_ipc_sem_unlock
0393f1f4 g     O .u_boot_list	0000001c _u_boot_list_2_cmd_2_chpart
03930fb4 g     F .text	000001f4 print_size
0390337c g     F .text	000000f0 nvt_detect_fw_tbin
03932e88 g     O .rodata	00000100 _ctype
0392bd08 g     F .text	000001d4 lzop_decompress
03919ed8  w    F .text	00000008 board_mmc_getwp
0393f2d4 g     O .u_boot_list	0000001c _u_boot_list_2_cmd_2_exfatrename
0393f6e0 g     O .bss	00000004 nvt_binfo_comm_itron_comp_len
039178b4 g     F .text	00000028 image_multi_count
03921fe8 g     F .text	000000b8 do_rename
039169f8 g     F .text	0000009c sbrk
03931930 g     F .text	00000080 strdup
0390a834 g     F .text	000000d0 do_bootm_linux
0390880c g     F .text	00000070 nvt_delete_delfw
0392b2bc g     F .text	000000a0 LzmaProps_Decode
0391e7c8 g     F .text	000000a8 nand_cmd_read_id
0391bc3c g     F .text	00000064 mmc_get_dev
03909768 g     F .text	0000005c mips_init_dcache
0392ec5c g     F .text	00000074 lmb_alloc_base
03907ec0 g     F .text	00000580 nvt_chk_all_in_one_valid
03903f2c g     F .text	000000cc nvt_fs_set_blk_dev
0393f698 g       .bss	00000000 __bss_start
0393f3b4 g     O .u_boot_list	0000001c _u_boot_list_2_cmd_2_fatwrite
03929320 g     F .text	000001ac file_exfat_detectfs
039319ec g     F .text	00000080 memset
0390cfc4 g     F .text	0000016c autoboot_command
0393f37c g     O .u_boot_list	0000001c _u_boot_list_2_cmd_2_fatrename
0391f9bc g     F .text	00000268 spinor_read_operation
03945220 g     O .bss	00000001 current_mtd_partnum
03921698 g     F .text	000000fc fs_set_blk_dev
03a05da0 g     O .bss	00010000 do_fat_read_at_block
03920f80 g     F .text	00000018 spi_flash_free
03917aa4 g     F .text	00000024 memmove_wd
03904348 g     F .text	0000003c nvtpack_calc_nvt_sum
039456f0 g     O .bss	00000004 top_reg8
0392fa98 g     F .text	000000ac md5_wd
0393f408 g     O .u_boot_list	0000001c _u_boot_list_2_cmd_2_loop
0391fef4 g     F .text	00000094 nand_host_receive_data
0393f680 g     O .u_boot_list	00000008 _u_boot_list_2_env_clbk_2_console
0393f688 g     O .u_boot_list	00000008 _u_boot_list_2_env_clbk_2_flags
03909330 g     F .text	0000007c cc_getHwResGrant
0392ecd0 g     F .text	00000018 lmb_alloc
0390d354 g     F .text	00000074 bootm_find_ramdisk_fdt
039186e4 g     F .text	00000120 get_dev_hwpart
0393f478 g     O .u_boot_list	0000001c _u_boot_list_2_cmd_2_mmcinfo
0390ab58 g     F .text	0000021c _do_help
0393f690 g     O .u_boot_list	00000008 _u_boot_list_2_env_clbk_2_loadaddr
03945518 g     O .bss	0000000c stdio_devices
03920028 g     F .text	00000034 nand_dll_reset
0393f600 g     O .u_boot_list	0000001c _u_boot_list_2_cmd_2_setenv
0390f1c8 g     F .text	00000024 env_init
0391e468 g     F .text	000000e0 mtd_erase
03916360 g     F .text	00000044 putc
03909474 g     F .text	00000158 iocfg_init
0393f210 g     O .u_boot_list	0000001c _u_boot_list_2_cmd_2_cmp
0391d0ac g     F .text	00000064 sdiohost_setblksize
03915ec4 g     F .text	00000050 set_default_vars
0390bfc0 g     F .text	00000008 cli_init
03931850 g     F .text	0000002c strcmp
03918aac g     F .text	0000012c print_part
03945c4c g     O .bss	00000004 save_size
0391eecc g     F .text	00000174 spinor_erase_sector
039211f0 g     F .text	00000048 serial_init
03921928 g     F .text	000000b0 fs_write
039085ac g     F .text	000001e4 nvt_rename_updfw
0392bedc g     F .text	00000018 zcalloc
039093ac g     F .text	000000c0 cc_hwLockResource
0391e870 g     F .text	0000012c nand_cmd_wait_complete
0393f1d8 g     O .u_boot_list	0000001c _u_boot_list_2_cmd_2_bootm
0392005c g     F .text	00000060 nand_hostSetNandType
039456f4 g     O .bss	00000004 top_reg_lgpio0
03921808 g     F .text	00000068 fs_exists
03916180 g     F .text	00000038 fgetc
039175ec g     F .text	0000018c memalign
03932b50 g     F .text	0000003c sprintf
0394570c g     O .bss	00000004 na51023_time_start
0393f6dc g     O .bss	00000004 nvt_binfo_comm_fw_update_addr
0392eaf0 g     F .text	0000016c __lmb_alloc_base
0390e45c g     F .text	000001b8 env_attr_walk
03920fa8 g     F .text	00000010 serial_stub_stop
03909d5c g     F .text	00000110 board_init_f
03929700 g     F .text	0000001c file_exfat_rename
0393dee8 g     O .data	0000000c stdio_names
0393f53c g     O .u_boot_list	0000001c _u_boot_list_2_cmd_2_nvt_bootm
039456f8 g     O .bss	00000004 top_reg_hgpi0
0391f1cc g     F .text	000000c4 spinor_read_status
039095cc g     F .text	00000144 nvt_rtc_init
0393f6e4 g     O .bss	00000004 nvt_binfo_comm_itron_comp_addr
03920100 g     F .text	00000024 nand_hostSetupStatusCheckBit
0390b478 g     F .text	00000140 cmd_process
03921490 g     F .text	00000040 serial_puts
039092d4 g     F .text	0000005c cc_hwUnlockResource
03903ff8 g     F .text	00000130 nvt_fw_load_tbin
039045a0 g     F .text	000001c0 nvtpack_get_partition
03a15da0 g     O .bss	00040000 get_contents_vexfatname_block
039219d8 g     F .text	00000070 fs_rename
03945508 g     O .bss	00000004 mem_malloc_brk
0393f280 g     O .u_boot_list	0000001c _u_boot_list_2_cmd_2_exfatinfo
03916554 g     F .text	00000018 had_ctrlc
039099ec g     F .text	00000034 get_ticks
0392105c g     F .text	000000e4 serial_stdio_init
0391a600 g     F .text	00000080 mmc_select_hwpart
03900c0c g     F .text	00000008 initdram
0393f3d0 g     O .u_boot_list	0000001c _u_boot_list_2_cmd_2_go
0390993c g     F .text	00000008 disable_interrupts
0391b660 g     F .text	00000124 mmc_create
03926620 g     F .text	00000074 fat_read_file
0391d048 g     F .text	00000064 sdiohost_delayd
0393f558 g     O .u_boot_list	0000001c _u_boot_list_2_cmd_2_nvt_update_all
0391555c g     F .text	0000004c setenv_ulong
0390ec60 g     F .text	00000090 env_flags_parse_varaccess
039161f0 g     F .text	0000003c fputc
0390b5c8 g     F .text	00000174 jumptable_init
0393f6f0 g     O .bss	00000004 nvt_binfo_comm_uboot_boot_func
0391d318 g     F .text	0000001c sdiohost_getstatus
0392ece8  w    F .text	00000008 board_lmb_reserve
0393f69c g     O .bss	00000004 SDIO_SDR104_MODE_DATA_DRIVING
0390f734 g     F .text	00000038 do_exfat_fsload
0393f698 g     O .bss	00000004 SDIO_SDR104_MODE_CMD_DRIVING
0390b908 g     F .text	000003fc cli_simple_run_command
0390e614 g     F .text	00000228 env_attr_lookup
039183fc g     F .text	00000018 stdio_serial_putc
03928b68 g     F .text	00000770 do_exfat_read_at
03904988 g     F .text	00000108 nvt_ipc_sem_lock
0393f5c8 g     O .u_boot_list	0000001c _u_boot_list_2_cmd_2_reset
0392ea34 g     F .text	00000028 lmb_init
0393f1bc g     O .u_boot_list	0000001c _u_boot_list_2_cmd_2_base
03920300 g     F .text	00000070 nvt_spinor_read_ops
03919f48  w    F .text	00000008 board_mmc_getcd
0391d3b0 g     F .text	00000038 sdiohost_getfifodir
039322c0 g     F .text	000000e4 simple_strtoul
039456fc g     O .bss	00000004 top_reg_pgpio0
0391f040 g     F .text	0000018c spinor_program_operation
0390ad74 g     F .text	00000084 var_complete
03916778 g     F .text	00000014 console_init_f
03a55da0 g     O .bss	00010000 get_dentfromdir_block
03931590 g     F .text	00000018 crc32_wd
0393f6d0 g     O .bss	00000004 nvt_bin_name_t
03912424 g     F .text	00000054 device_find
03945700 g     O .bss	00000004 top_reg6
0391be78 g     F .text	00000238 mmc_dump_boot_info
0390980c g     F .text	00000024 dcache_status
0391656c g     F .text	00000018 clear_ctrlc
0391dabc g     F .text	0000005c mmc_nvt_start_command
0393f76c g     O .bss	00000004 board_init_spi_flash
03918244 g     F .text	000001b8 boot_ramdisk_high
0391ca84 g     F .text	00000074 pll_set_sdioclock_rate
0390cf1c g     F .text	00000020 cli_readline
039295b4 g     F .text	00000074 exfat_read_file
03921f38 g     F .text	000000b0 do_rm
039213d0 g     F .text	0000003c serial_getc
0392b400 g     F .text	00000138 LzmaDecode
0393f678 g     O .u_boot_list	00000008 _u_boot_list_2_env_clbk_2_callbacks
03926774 g     F .text	00000068 file_fat_rename
0391a318 g     F .text	00000060 find_mmc_device
0390b5c0 g     F .text	00000008 get_version
03945704 g     O .bss	00000004 top_reg1
0393f6c0 g     O .bss	00000004 SDIO_DS_MODE_DATA_DRIVING
0393f344 g     O .u_boot_list	0000001c _u_boot_list_2_cmd_2_fatload
03945ce0 g     O .bss	000000b0 spi_flash_info
03920124 g     F .text	00000028 nand_hostSetSPIIORegister
0390e350 g     F .text	00000024 bootm_os_get_boot_func
03915c98 g     F .text	00000034 env_get_char_memory
03a65da0 g     O .bss	00010000 get_contents_vfatname_block
0391a0fc g     F .text	00000140 mmc_send_status
03941128 g       .rel.dyn	00000000 __rel_dyn_end
0393f590 g     O .u_boot_list	0000001c _u_boot_list_2_cmd_2_question_mark
0391bd70 g     F .text	00000050 get_mmc_num
0391d450 g     F .text	000000b4 sdiohost_getlongrsp
0392638c g     F .text	000001ac file_fat_detectfs
03926708 g     F .text	0000006c fat_write_file
039318e8 g     F .text	00000020 strlen
0391678c g     F .text	00000110 stdio_print_current_devices
0393f6b0 g     O .bss	00000004 SDIO_HS_MODE_CMD_DRIVING
03919ce8 g     F .text	000000ec to_tm
039178dc g     F .text	000000d8 image_multi_getimg
03904760 g     F .text	000001c4 nvtpack_enum_partition
0393f45c g     O .u_boot_list	0000001c _u_boot_list_2_cmd_2_mmc
0390be9c g     F .text	00000018 run_command_repeatable
0393f6c4 g     O .bss	00000004 SDIO_DS_MODE_CLK_DRIVING
0391595c g     F .text	000000bc envmatch
0391fc24 g     F .text	00000144 spinor_write_status
03918bd8 g     F .text	0000004c get_partition_info
039155a8 g     F .text	00000068 setenv_hex
039318b8 g     F .text	00000030 strchr
03900cf8 g     F .text	00000110 misc_init_r
03909934 g     F .text	00000008 enable_interrupts
0392fc8c g     F .text	0000001c strcmp_compar
0391d3e8 g     F .text	00000068 sdiohost_waitfifoempty
0391622c g     F .text	00000038 fputs
039294cc g     F .text	00000020 file_exfat_ls
0391e614 g     F .text	00000098 mtd_erase_callback
0392cb7c g     F .text	00000074 inflateEnd
0393f670 g     O .u_boot_list	00000008 _u_boot_list_2_env_clbk_2_baudrate
0391a560 g     F .text	000000a0 mmc_switch_part
0390325c g     F .text	00000120 nvt_ipc_init
03903124 g     F .text	00000138 nvt_modelext_bininfo_init
0393f6b8 g     O .bss	00000004 SDIO_HS_MODE_CLK_DRIVING
039041dc g     F .text	00000070 nvt_get_32bits_data
039075b0 g     F .text	000002a8 pinmux_init
03909830 g     F .text	0000001c dcache_disable
0392ca44 g     F .text	00000138 inflateInit2_
0390887c g     F .text	000006f8 nvt_process_all_in_one
0390b840 g     F .text	000000c8 cli_simple_parse_line
0392e61c g     F .text	00000018 gzfree
0391d548 g     F .text	000004b8 sdiohost_sendcmd
03915d0c g     F .text	00000064 getenv_yesno
0392c49c g     F .text	00000534 inflate_table
03931420 g     F .text	0000013c crc32_no_comp
0391bdc0 g     F .text	000000b8 mmc_initialize
03918a64 g     F .text	00000048 init_part
039319b0 g     F .text	0000003c strpbrk
0392ea78 g     F .text	0000001c lmb_reserve
03918608 g     F .text	00000018 stdio_register
0393f424 g     O .u_boot_list	0000001c _u_boot_list_2_cmd_2_md
0391c8c0 g     F .text	00000024 sdiohost_setbuswidth
03916bdc g     F .text	00000248 free
0390384c g     F .text	0000029c get_nvt_bin_name
03929628 g     F .text	00000008 exfat_close
0393f22c g     O .u_boot_list	0000001c _u_boot_list_2_cmd_2_cp
03904384 g     F .text	0000021c nvtpack_verify
039324ac g     F .text	00000104 simple_strtoull



Disassembly of section .text:

03900000 <_start_nvt>:
 3900000:	400d8000 	mfc0	t5,c0_config
 3900004:	31adfff8 	andi	t5,t5,0xfff8
 3900008:	35ad0002 	ori	t5,t5,0x2
 390000c:	408d8000 	mtc0	t5,c0_config
 3900010:	40801000 	mtc0	zero,c0_entrylo0
 3900014:	40801800 	mtc0	zero,c0_entrylo1
 3900018:	40802800 	mtc0	zero,c0_pagemask
 390001c:	40803000 	mtc0	zero,c0_wired
 3900020:	3c0f1fff 	lui	t7,0x1fff
 3900024:	35efe000 	ori	t7,t7,0xe000
 3900028:	408f2800 	mtc0	t7,c0_pagemask
 390002c:	3c0f0300 	lui	t7,0x300
 3900030:	35ef0017 	ori	t7,t7,0x17
 3900034:	408f1000 	mtc0	t7,c0_entrylo0
 3900038:	3c0f0340 	lui	t7,0x340
 390003c:	35ef0017 	ori	t7,t7,0x17
 3900040:	408f1800 	mtc0	t7,c0_entrylo1
 3900044:	3c0fc000 	lui	t7,0xc000
 3900048:	408f5000 	mtc0	t7,c0_entryhi
 390004c:	40800000 	mtc0	zero,c0_index
 3900050:	00000040 	ssnop
 3900054:	00000040 	ssnop
 3900058:	42000002 	tlbwi
 390005c:	00000000 	nop
 3900060:	3c0f1fff 	lui	t7,0x1fff
 3900064:	35efe000 	ori	t7,t7,0xe000
 3900068:	408f2800 	mtc0	t7,c0_pagemask
 390006c:	3c0f0000 	lui	t7,0x0
 3900070:	35ef0017 	ori	t7,t7,0x17
 3900074:	408f1000 	mtc0	t7,c0_entrylo0
 3900078:	3c0f0040 	lui	t7,0x40
 390007c:	35ef0017 	ori	t7,t7,0x17
 3900080:	408f1800 	mtc0	t7,c0_entrylo1
 3900084:	3c0f0000 	lui	t7,0x0
 3900088:	408f5000 	mtc0	t7,c0_entryhi
 390008c:	240f0001 	li	t7,1
 3900090:	408f0000 	mtc0	t7,c0_index
 3900094:	000000c0 	ehb
 3900098:	00000040 	ssnop
 390009c:	00000040 	ssnop
 39000a0:	42000002 	tlbwi
 39000a4:	00000000 	nop
 39000a8:	000000c0 	ehb
 39000ac:	3c0f1fff 	lui	t7,0x1fff
 39000b0:	35efe000 	ori	t7,t7,0xe000
 39000b4:	408f2800 	mtc0	t7,c0_pagemask
 39000b8:	3c0f0080 	lui	t7,0x80
 39000bc:	35ef0017 	ori	t7,t7,0x17
 39000c0:	408f1000 	mtc0	t7,c0_entrylo0
 39000c4:	3c0f00c0 	lui	t7,0xc0
 39000c8:	35ef0017 	ori	t7,t7,0x17
 39000cc:	408f1800 	mtc0	t7,c0_entrylo1
 39000d0:	3c0f2000 	lui	t7,0x2000
 39000d4:	408f5000 	mtc0	t7,c0_entryhi
 39000d8:	240f0002 	li	t7,2
 39000dc:	408f0000 	mtc0	t7,c0_index
 39000e0:	000000c0 	ehb
 39000e4:	00000040 	ssnop
 39000e8:	00000040 	ssnop
 39000ec:	42000002 	tlbwi
 39000f0:	00000000 	nop
 39000f4:	000000c0 	ehb
 39000f8:	3c0f1fff 	lui	t7,0x1fff
 39000fc:	35efe000 	ori	t7,t7,0xe000
 3900100:	408f2800 	mtc0	t7,c0_pagemask
 3900104:	3c0f0000 	lui	t7,0x0
 3900108:	35ef0017 	ori	t7,t7,0x17
 390010c:	408f1000 	mtc0	t7,c0_entrylo0
 3900110:	3c0f0040 	lui	t7,0x40
 3900114:	35ef0017 	ori	t7,t7,0x17
 3900118:	408f1800 	mtc0	t7,c0_entrylo1
 390011c:	3c0f4000 	lui	t7,0x4000
 3900120:	408f5000 	mtc0	t7,c0_entryhi
 3900124:	240f0003 	li	t7,3
 3900128:	408f0000 	mtc0	t7,c0_index
 390012c:	00000040 	ssnop
 3900130:	00000040 	ssnop
 3900134:	42000002 	tlbwi
 3900138:	00000000 	nop
 390013c:	000000c0 	ehb
 3900140:	3c0f1fff 	lui	t7,0x1fff
 3900144:	35efe000 	ori	t7,t7,0xe000
 3900148:	408f2800 	mtc0	t7,c0_pagemask
 390014c:	3c0f0080 	lui	t7,0x80
 3900150:	35ef0017 	ori	t7,t7,0x17
 3900154:	408f1000 	mtc0	t7,c0_entrylo0
 3900158:	3c0f00c0 	lui	t7,0xc0
 390015c:	35ef0017 	ori	t7,t7,0x17
 3900160:	408f1800 	mtc0	t7,c0_entrylo1
 3900164:	3c0f6000 	lui	t7,0x6000
 3900168:	408f5000 	mtc0	t7,c0_entryhi
 390016c:	240f0004 	li	t7,4
 3900170:	408f0000 	mtc0	t7,c0_index
 3900174:	00000040 	ssnop
 3900178:	00000040 	ssnop
 390017c:	42000002 	tlbwi
 3900180:	00000000 	nop
 3900184:	000000c0 	ehb
 3900188:	10000081 	b	3900390 <reset>
 390018c:	00000000 	nop
 3900190:	00000000 	nop

03900194 <_start_nvt_end>:
	...

03900300 <gHeadInfo>:
 3900300:	03900000 00000000 00000000 00000000     ................
	...
 3900350:	31356275 20333230 00000000 00000000     ub51023 ........
 3900360:	39313032 30313630 ffffffff ffffffff     20190610........
	...

03900380 <_start>:
 3900380:	10000003 00000000 00000000 00000000     ................

03900390 <reset>:
 3900390:	40809000 	mtc0	zero,c0_watchlo
 3900394:	40809800 	mtc0	zero,c0_watchhi
 3900398:	40806800 	mtc0	zero,c0_cause
 390039c:	40086000 	mfc0	t0,c0_status
 39003a0:	3c011000 	lui	at,0x1000
 39003a4:	3421001f 	ori	at,at,0x1f
 39003a8:	01014025 	or	t0,t0,at
 39003ac:	3908001f 	xori	t0,t0,0x1f
 39003b0:	40886000 	mtc0	t0,c0_status
 39003b4:	000000c0 	ehb
 39003b8:	40804800 	mtc0	zero,c0_count
 39003bc:	40805800 	mtc0	zero,c0_compare
 39003c0:	24080002 	li	t0,2
 39003c4:	40888000 	mtc0	t0,c0_config
 39003c8:	04110002 	bal	39003d4 <reset+0x44>
 39003cc:	00000000 	nop
 39003d0:	03946900 	0x3946900
 39003d4:	8ffc0000 	lw	gp,0(ra)
 39003d8:	8f998018 	lw	t9,-32744(gp)
 39003dc:	0320f809 	jalr	t9
 39003e0:	00000000 	nop
 39003e4:	8f99801c 	lw	t9,-32740(gp)
 39003e8:	0320f809 	jalr	t9
 39003ec:	00000000 	nop
 39003f0:	3c0f1fff 	lui	t7,0x1fff
 39003f4:	35efe000 	ori	t7,t7,0xe000
 39003f8:	408f2800 	mtc0	t7,c0_pagemask
 39003fc:	3c0f0000 	lui	t7,0x0
 3900400:	35ef001f 	ori	t7,t7,0x1f
 3900404:	408f1000 	mtc0	t7,c0_entrylo0
 3900408:	3c0f0040 	lui	t7,0x40
 390040c:	35ef001f 	ori	t7,t7,0x1f
 3900410:	408f1800 	mtc0	t7,c0_entrylo1
 3900414:	3c0f0000 	lui	t7,0x0
 3900418:	408f5000 	mtc0	t7,c0_entryhi
 390041c:	240f0001 	li	t7,1
 3900420:	408f0000 	mtc0	t7,c0_index
 3900424:	000000c0 	ehb
 3900428:	00000040 	ssnop
 390042c:	00000040 	ssnop
 3900430:	42000002 	tlbwi
 3900434:	00000000 	nop
 3900438:	000000c0 	ehb
 390043c:	24080003 	li	t0,3
 3900440:	40888000 	mtc0	t0,c0_config
 3900444:	3c080020 	lui	t0,0x20
 3900448:	3c090390 	lui	t1,0x390
 390044c:	01094021 	addu	t0,t0,t1
 3900450:	251d0000 	addiu	sp,t0,0
 3900454:	8f998020 	lw	t9,-32736(gp)
 3900458:	03200008 	jr	t9
 390045c:	00000000 	nop

03900460 <relocate_code>:
 3900460:	0080e821 	move	sp,a0
 3900464:	00a08021 	move	s0,a1
 3900468:	00c09021 	move	s2,a2
 390046c:	3c080390 	lui	t0,0x390
 3900470:	02488822 	sub	s1,s2,t0
 3900474:	8f8b8024 	lw	t3,-32732(gp)
 3900478:	256b04d4 	addiu	t3,t3,1236
 390047c:	8d6afff4 	lw	t2,-12(t3)
 3900480:	00c04821 	move	t1,a2
 3900484:	0391e020 	add	gp,gp,s1
 3900488:	8d0b0000 	lw	t3,0(t0)
 390048c:	ad2b0000 	sw	t3,0(t1)
 3900490:	25080004 	addiu	t0,t0,4
 3900494:	010a082a 	slt	at,t0,t2
 3900498:	1420fffb 	bnez	at,3900488 <relocate_code+0x28>
 390049c:	25290004 	addiu	t1,t1,4
 39004a0:	01322822 	sub	a1,t1,s2
 39004a4:	8f998028 	lw	t9,-32728(gp)
 39004a8:	0320f809 	jalr	t9
 39004ac:	02402021 	move	a0,s2
 39004b0:	8f888024 	lw	t0,-32732(gp)
 39004b4:	250804d4 	addiu	t0,t0,1236
 39004b8:	01000008 	jr	t0
 39004bc:	00000000 	nop
 39004c0:	03941128 	0x3941128
 39004c4:	0393f698 	0x393f698
 39004c8:	0393f698 	0x393f698
 39004cc:	0393e910 	0x393e910
 39004d0:	0000022b 	0x22b

039004d4 <in_ram>:
 39004d4:	8d0bfffc 	lw	t3,-4(t0)
 39004d8:	8d18fff8 	lw	t8,-8(t0)
 39004dc:	0311c020 	add	t8,t8,s1
 39004e0:	23180008 	addi	t8,t8,8
 39004e4:	240a0002 	li	t2,2
 39004e8:	8f090000 	lw	t1,0(t8)
 39004ec:	11200002 	beqz	t1,39004f8 <in_ram+0x24>
 39004f0:	01314820 	add	t1,t1,s1
 39004f4:	af090000 	sw	t1,0(t8)
 39004f8:	214a0001 	addi	t2,t2,1
 39004fc:	014b082a 	slt	at,t2,t3
 3900500:	1420fff9 	bnez	at,39004e8 <in_ram+0x14>
 3900504:	23180004 	addi	t8,t8,4
 3900508:	8d09fff0 	lw	t1,-16(t0)
 390050c:	8d0affec 	lw	t2,-20(t0)
 3900510:	1000000a 	b	390053c <in_ram+0x68>
 3900514:	21290008 	addi	t1,t1,8
 3900518:	8d38fffc 	lw	t8,-4(t1)
 390051c:	240b0003 	li	t3,3
 3900520:	170b0006 	bne	t8,t3,390053c <in_ram+0x68>
 3900524:	00000000 	nop
 3900528:	8d2bfff8 	lw	t3,-8(t1)
 390052c:	8d780000 	lw	t8,0(t3)
 3900530:	0311c020 	add	t8,t8,s1
 3900534:	01715820 	add	t3,t3,s1
 3900538:	ad780000 	sw	t8,0(t3)
 390053c:	012a082a 	slt	at,t1,t2
 3900540:	1420fff5 	bnez	at,3900518 <in_ram+0x44>
 3900544:	21290008 	addi	t1,t1,8
 3900548:	8f89802c 	lw	t1,-32724(gp)
 390054c:	8f8a8030 	lw	t2,-32720(gp)
 3900550:	ad200000 	sw	zero,0(t1)
 3900554:	012a082a 	slt	at,t1,t2
 3900558:	1420fffd 	bnez	at,3900550 <in_ram+0x7c>
 390055c:	21290004 	addi	t1,t1,4
 3900560:	02002021 	move	a0,s0
 3900564:	8f998034 	lw	t9,-32716(gp)
 3900568:	03200008 	jr	t9
 390056c:	02402821 	move	a1,s2

03900570 <lowlevel_init>:
 3900570:	03e00008 00000000 00000000 00000000     ................

03900580 <nvt_handle_fw_auto>:
 3900580:	3c1c0004 	lui	gp,0x4
 3900584:	279c6380 	addiu	gp,gp,25472
 3900588:	0399e021 	addu	gp,gp,t9
 390058c:	27bdefd0 	addiu	sp,sp,-4144
 3900590:	8f998038 	lw	t9,-32712(gp)
 3900594:	00002821 	move	a1,zero
 3900598:	afb1101c 	sw	s1,4124(sp)
 390059c:	27b10c18 	addiu	s1,sp,3096
 39005a0:	24060400 	li	a2,1024
 39005a4:	afbc0010 	sw	gp,16(sp)
 39005a8:	afbf102c 	sw	ra,4140(sp)
 39005ac:	02202021 	move	a0,s1
 39005b0:	afb31024 	sw	s3,4132(sp)
 39005b4:	afb21020 	sw	s2,4128(sp)
 39005b8:	27b20818 	addiu	s2,sp,2072
 39005bc:	afb41028 	sw	s4,4136(sp)
 39005c0:	0320f809 	jalr	t9
 39005c4:	afb01018 	sw	s0,4120(sp)
 39005c8:	00002821 	move	a1,zero
 39005cc:	8fbc0010 	lw	gp,16(sp)
 39005d0:	24060400 	li	a2,1024
 39005d4:	8f998038 	lw	t9,-32712(gp)
 39005d8:	0320f809 	jalr	t9
 39005dc:	02402021 	move	a0,s2
 39005e0:	24030001 	li	v1,1
 39005e4:	8fbc0010 	lw	gp,16(sp)
 39005e8:	8f93803c 	lw	s3,-32708(gp)
 39005ec:	8e620000 	lw	v0,0(s3)
 39005f0:	8c420000 	lw	v0,0(v0)
 39005f4:	304200ff 	andi	v0,v0,0xff
 39005f8:	14430059 	bne	v0,v1,3900760 <nvt_handle_fw_auto+0x1e0>
 39005fc:	2442fffe 	addiu	v0,v0,-2
 3900600:	8f848044 	lw	a0,-32700(gp)
 3900604:	8f918044 	lw	s1,-32700(gp)
 3900608:	8f908044 	lw	s0,-32700(gp)
 390060c:	8f998040 	lw	t9,-32704(gp)
 3900610:	248440b8 	addiu	a0,a0,16568
 3900614:	262540e4 	addiu	a1,s1,16612
 3900618:	0320f809 	jalr	t9
 390061c:	260640ec 	addiu	a2,s0,16620
 3900620:	8fbc0010 	lw	gp,16(sp)
 3900624:	8f998048 	lw	t9,-32696(gp)
 3900628:	0320f809 	jalr	t9
 390062c:	24040001 	li	a0,1
 3900630:	8fbc0010 	lw	gp,16(sp)
 3900634:	04410014 	bgez	v0,3900688 <nvt_handle_fw_auto+0x108>
 3900638:	8f998040 	lw	t9,-32704(gp)
 390063c:	8f848044 	lw	a0,-32700(gp)
 3900640:	260640ec 	addiu	a2,s0,16620
 3900644:	8f858044 	lw	a1,-32700(gp)
 3900648:	248440f4 	addiu	a0,a0,16628
 390064c:	0320f809 	jalr	t9
 3900650:	24a54108 	addiu	a1,a1,16648
 3900654:	3c03ffff 	lui	v1,0xffff
 3900658:	8e640000 	lw	a0,0(s3)
 390065c:	8fbc0010 	lw	gp,16(sp)
 3900660:	24850004 	addiu	a1,a0,4
 3900664:	8c820000 	lw	v0,0(a0)
 3900668:	8f99804c 	lw	t9,-32692(gp)
 390066c:	00431024 	and	v0,v0,v1
 3900670:	34420200 	ori	v0,v0,0x200
 3900674:	ac820000 	sw	v0,0(a0)
 3900678:	0320f809 	jalr	t9
 390067c:	00000000 	nop
 3900680:	10000017 	b	39006e0 <nvt_handle_fw_auto+0x160>
 3900684:	00000000 	nop
 3900688:	8f848044 	lw	a0,-32700(gp)
 390068c:	262540e4 	addiu	a1,s1,16612
 3900690:	260640ec 	addiu	a2,s0,16620
 3900694:	0260a021 	move	s4,s3
 3900698:	0320f809 	jalr	t9
 390069c:	24844110 	addiu	a0,a0,16656
 39006a0:	8fbc0010 	lw	gp,16(sp)
 39006a4:	8f998050 	lw	t9,-32688(gp)
 39006a8:	0320f809 	jalr	t9
 39006ac:	00000000 	nop
 39006b0:	10400015 	beqz	v0,3900708 <nvt_handle_fw_auto+0x188>
 39006b4:	8fbc0010 	lw	gp,16(sp)
 39006b8:	8f998054 	lw	t9,-32684(gp)
 39006bc:	0320f809 	jalr	t9
 39006c0:	24040001 	li	a0,1
 39006c4:	10400008 	beqz	v0,39006e8 <nvt_handle_fw_auto+0x168>
 39006c8:	8fbc0010 	lw	gp,16(sp)
 39006cc:	8f848044 	lw	a0,-32700(gp)
 39006d0:	24844134 	addiu	a0,a0,16692
 39006d4:	8f998040 	lw	t9,-32704(gp)
 39006d8:	0320f809 	jalr	t9
 39006dc:	00000000 	nop
 39006e0:	10000141 	b	3900be8 <nvt_handle_fw_auto+0x668>
 39006e4:	2410ffff 	li	s0,-1
 39006e8:	8f998058 	lw	t9,-32680(gp)
 39006ec:	0320f809 	jalr	t9
 39006f0:	00000000 	nop
 39006f4:	10400004 	beqz	v0,3900708 <nvt_handle_fw_auto+0x188>
 39006f8:	8fbc0010 	lw	gp,16(sp)
 39006fc:	8f848044 	lw	a0,-32700(gp)
 3900700:	1000fff4 	b	39006d4 <nvt_handle_fw_auto+0x154>
 3900704:	24844154 	addiu	a0,a0,16724
 3900708:	8e840000 	lw	a0,0(s4)
 390070c:	3c03ffff 	lui	v1,0xffff
 3900710:	8f99804c 	lw	t9,-32692(gp)
 3900714:	24850004 	addiu	a1,a0,4
 3900718:	8c820000 	lw	v0,0(a0)
 390071c:	00431024 	and	v0,v0,v1
 3900720:	34420100 	ori	v0,v0,0x100
 3900724:	ac820000 	sw	v0,0(a0)
 3900728:	0320f809 	jalr	t9
 390072c:	00000000 	nop
 3900730:	8fbc0010 	lw	gp,16(sp)
 3900734:	8f90805c 	lw	s0,-32676(gp)
 3900738:	2610caec 	addiu	s0,s0,-13588
 390073c:	8f998040 	lw	t9,-32704(gp)
 3900740:	0320f809 	jalr	t9
 3900744:	02002021 	move	a0,s0
 3900748:	8fbc0010 	lw	gp,16(sp)
 390074c:	8f998060 	lw	t9,-32672(gp)
 3900750:	0320f809 	jalr	t9
 3900754:	240403e8 	li	a0,1000
 3900758:	1000fff8 	b	390073c <nvt_handle_fw_auto+0x1bc>
 390075c:	8fbc0010 	lw	gp,16(sp)
 3900760:	2c420002 	sltiu	v0,v0,2
 3900764:	50400045 	beqzl	v0,390087c <nvt_handle_fw_auto+0x2fc>
 3900768:	8f998064 	lw	t9,-32668(gp)
 390076c:	8f998038 	lw	t9,-32712(gp)
 3900770:	27b10418 	addiu	s1,sp,1048
 3900774:	00002821 	move	a1,zero
 3900778:	24060400 	li	a2,1024
 390077c:	0320f809 	jalr	t9
 3900780:	02202021 	move	a0,s1
 3900784:	27b00018 	addiu	s0,sp,24
 3900788:	8fbc0010 	lw	gp,16(sp)
 390078c:	00002821 	move	a1,zero
 3900790:	24060400 	li	a2,1024
 3900794:	8f998038 	lw	t9,-32712(gp)
 3900798:	0320f809 	jalr	t9
 390079c:	02002021 	move	a0,s0
 39007a0:	8fbc0010 	lw	gp,16(sp)
 39007a4:	8f848044 	lw	a0,-32700(gp)
 39007a8:	8f938044 	lw	s3,-32700(gp)
 39007ac:	8f928044 	lw	s2,-32700(gp)
 39007b0:	8f998040 	lw	t9,-32704(gp)
 39007b4:	24844174 	addiu	a0,a0,16756
 39007b8:	266540e4 	addiu	a1,s3,16612
 39007bc:	0320f809 	jalr	t9
 39007c0:	264640ec 	addiu	a2,s2,16620
 39007c4:	8fbc0010 	lw	gp,16(sp)
 39007c8:	8f998048 	lw	t9,-32696(gp)
 39007cc:	0320f809 	jalr	t9
 39007d0:	24040001 	li	a0,1
 39007d4:	8fbc0010 	lw	gp,16(sp)
 39007d8:	04410007 	bgez	v0,39007f8 <nvt_handle_fw_auto+0x278>
 39007dc:	8f998040 	lw	t9,-32704(gp)
 39007e0:	8f848044 	lw	a0,-32700(gp)
 39007e4:	264640ec 	addiu	a2,s2,16620
 39007e8:	8f858044 	lw	a1,-32700(gp)
 39007ec:	248440f4 	addiu	a0,a0,16628
 39007f0:	100000c7 	b	3900b10 <nvt_handle_fw_auto+0x590>
 39007f4:	24a54108 	addiu	a1,a1,16648
 39007f8:	8f848044 	lw	a0,-32700(gp)
 39007fc:	264640ec 	addiu	a2,s2,16620
 3900800:	266540e4 	addiu	a1,s3,16612
 3900804:	0320f809 	jalr	t9
 3900808:	24844110 	addiu	a0,a0,16656
 390080c:	8fbc0010 	lw	gp,16(sp)
 3900810:	8f928044 	lw	s2,-32700(gp)
 3900814:	8f998068 	lw	t9,-32664(gp)
 3900818:	0320f809 	jalr	t9
 390081c:	264441a4 	addiu	a0,s2,16804
 3900820:	02002021 	move	a0,s0
 3900824:	8fbc0010 	lw	gp,16(sp)
 3900828:	00403021 	move	a2,v0
 390082c:	8f858044 	lw	a1,-32700(gp)
 3900830:	8f99806c 	lw	t9,-32660(gp)
 3900834:	0320f809 	jalr	t9
 3900838:	24a541b0 	addiu	a1,a1,16816
 390083c:	02002821 	move	a1,s0
 3900840:	8fbc0010 	lw	gp,16(sp)
 3900844:	8f998070 	lw	t9,-32656(gp)
 3900848:	0320f809 	jalr	t9
 390084c:	02202021 	move	a0,s1
 3900850:	00002821 	move	a1,zero
 3900854:	8fbc0010 	lw	gp,16(sp)
 3900858:	8f998074 	lw	t9,-32652(gp)
 390085c:	0320f809 	jalr	t9
 3900860:	02202021 	move	a0,s1
 3900864:	264441a4 	addiu	a0,s2,16804
 3900868:	8fbc0010 	lw	gp,16(sp)
 390086c:	04410062 	bgez	v0,39009f8 <nvt_handle_fw_auto+0x478>
 3900870:	00408021 	move	s0,v0
 3900874:	100000dd 	b	3900bec <nvt_handle_fw_auto+0x66c>
 3900878:	8fbf102c 	lw	ra,4140(sp)
 390087c:	0320f809 	jalr	t9
 3900880:	00000000 	nop
 3900884:	8fbc0010 	lw	gp,16(sp)
 3900888:	10400061 	beqz	v0,3900a10 <nvt_handle_fw_auto+0x490>
 390088c:	00408021 	move	s0,v0
 3900890:	8f998078 	lw	t9,-32648(gp)
 3900894:	0320f809 	jalr	t9
 3900898:	00000000 	nop
 390089c:	04410025 	bgez	v0,3900934 <nvt_handle_fw_auto+0x3b4>
 39008a0:	8fbc0010 	lw	gp,16(sp)
 39008a4:	2843fffc 	slti	v1,v0,-4
 39008a8:	1460002b 	bnez	v1,3900958 <nvt_handle_fw_auto+0x3d8>
 39008ac:	2843fffe 	slti	v1,v0,-2
 39008b0:	14600011 	bnez	v1,39008f8 <nvt_handle_fw_auto+0x378>
 39008b4:	2403fffe 	li	v1,-2
 39008b8:	14430027 	bne	v0,v1,3900958 <nvt_handle_fw_auto+0x3d8>
 39008bc:	8f99807c 	lw	t9,-32644(gp)
 39008c0:	0320f809 	jalr	t9
 39008c4:	24040002 	li	a0,2
 39008c8:	8fbc0010 	lw	gp,16(sp)
 39008cc:	00403021 	move	a2,v0
 39008d0:	8f848044 	lw	a0,-32700(gp)
 39008d4:	8f858044 	lw	a1,-32700(gp)
 39008d8:	8f878044 	lw	a3,-32700(gp)
 39008dc:	8f998040 	lw	t9,-32704(gp)
 39008e0:	248441b4 	addiu	a0,a0,16820
 39008e4:	24a540e4 	addiu	a1,a1,16612
 39008e8:	0320f809 	jalr	t9
 39008ec:	24e740ec 	addiu	a3,a3,16620
 39008f0:	10000019 	b	3900958 <nvt_handle_fw_auto+0x3d8>
 39008f4:	8fbc0010 	lw	gp,16(sp)
 39008f8:	8f99807c 	lw	t9,-32644(gp)
 39008fc:	0320f809 	jalr	t9
 3900900:	24040002 	li	a0,2
 3900904:	8fbc0010 	lw	gp,16(sp)
 3900908:	00403021 	move	a2,v0
 390090c:	8f848044 	lw	a0,-32700(gp)
 3900910:	8f858044 	lw	a1,-32700(gp)
 3900914:	8f878044 	lw	a3,-32700(gp)
 3900918:	8f998040 	lw	t9,-32704(gp)
 390091c:	248441dc 	addiu	a0,a0,16860
 3900920:	24a54108 	addiu	a1,a1,16648
 3900924:	0320f809 	jalr	t9
 3900928:	24e740ec 	addiu	a3,a3,16620
 390092c:	1000ff6c 	b	39006e0 <nvt_handle_fw_auto+0x160>
 3900930:	00000000 	nop
 3900934:	8f848044 	lw	a0,-32700(gp)
 3900938:	8f858044 	lw	a1,-32700(gp)
 390093c:	8f868044 	lw	a2,-32700(gp)
 3900940:	8f998040 	lw	t9,-32704(gp)
 3900944:	248441f8 	addiu	a0,a0,16888
 3900948:	24a540e4 	addiu	a1,a1,16612
 390094c:	0320f809 	jalr	t9
 3900950:	24c640ec 	addiu	a2,a2,16620
 3900954:	8fbc0010 	lw	gp,16(sp)
 3900958:	8f998080 	lw	t9,-32640(gp)
 390095c:	0320f809 	jalr	t9
 3900960:	00000000 	nop
 3900964:	8fbc0010 	lw	gp,16(sp)
 3900968:	04410007 	bgez	v0,3900988 <nvt_handle_fw_auto+0x408>
 390096c:	00408021 	move	s0,v0
 3900970:	8f848044 	lw	a0,-32700(gp)
 3900974:	8f998040 	lw	t9,-32704(gp)
 3900978:	0320f809 	jalr	t9
 390097c:	24844214 	addiu	a0,a0,16916
 3900980:	10000096 	b	3900bdc <nvt_handle_fw_auto+0x65c>
 3900984:	00000000 	nop
 3900988:	8f998084 	lw	t9,-32636(gp)
 390098c:	0320f809 	jalr	t9
 3900990:	00008021 	move	s0,zero
 3900994:	24030003 	li	v1,3
 3900998:	10430093 	beq	v0,v1,3900be8 <nvt_handle_fw_auto+0x668>
 390099c:	8fbc0010 	lw	gp,16(sp)
 39009a0:	8f858044 	lw	a1,-32700(gp)
 39009a4:	02402021 	move	a0,s2
 39009a8:	8f868044 	lw	a2,-32700(gp)
 39009ac:	8f99806c 	lw	t9,-32660(gp)
 39009b0:	24a541b0 	addiu	a1,a1,16816
 39009b4:	0320f809 	jalr	t9
 39009b8:	24c64228 	addiu	a2,a2,16936
 39009bc:	02202021 	move	a0,s1
 39009c0:	8fbc0010 	lw	gp,16(sp)
 39009c4:	8f998070 	lw	t9,-32656(gp)
 39009c8:	0320f809 	jalr	t9
 39009cc:	02402821 	move	a1,s2
 39009d0:	00002821 	move	a1,zero
 39009d4:	8fbc0010 	lw	gp,16(sp)
 39009d8:	8f998074 	lw	t9,-32652(gp)
 39009dc:	0320f809 	jalr	t9
 39009e0:	02202021 	move	a0,s1
 39009e4:	8fbc0010 	lw	gp,16(sp)
 39009e8:	0440007f 	bltz	v0,3900be8 <nvt_handle_fw_auto+0x668>
 39009ec:	00408021 	move	s0,v0
 39009f0:	8f848044 	lw	a0,-32700(gp)
 39009f4:	248441a4 	addiu	a0,a0,16804
 39009f8:	8f998088 	lw	t9,-32632(gp)
 39009fc:	02202821 	move	a1,s1
 3900a00:	0320f809 	jalr	t9
 3900a04:	00008021 	move	s0,zero
 3900a08:	10000078 	b	3900bec <nvt_handle_fw_auto+0x66c>
 3900a0c:	8fbf102c 	lw	ra,4140(sp)
 3900a10:	8f998038 	lw	t9,-32712(gp)
 3900a14:	27b20418 	addiu	s2,sp,1048
 3900a18:	00002821 	move	a1,zero
 3900a1c:	24060400 	li	a2,1024
 3900a20:	0320f809 	jalr	t9
 3900a24:	02402021 	move	a0,s2
 3900a28:	27b30018 	addiu	s3,sp,24
 3900a2c:	8fbc0010 	lw	gp,16(sp)
 3900a30:	00002821 	move	a1,zero
 3900a34:	24060400 	li	a2,1024
 3900a38:	8f998038 	lw	t9,-32712(gp)
 3900a3c:	0320f809 	jalr	t9
 3900a40:	02602021 	move	a0,s3
 3900a44:	8fbc0010 	lw	gp,16(sp)
 3900a48:	8f998048 	lw	t9,-32696(gp)
 3900a4c:	0320f809 	jalr	t9
 3900a50:	00002021 	move	a0,zero
 3900a54:	0441003d 	bgez	v0,3900b4c <nvt_handle_fw_auto+0x5cc>
 3900a58:	8fbc0010 	lw	gp,16(sp)
 3900a5c:	2403fffd 	li	v1,-3
 3900a60:	10430024 	beq	v0,v1,3900af4 <nvt_handle_fw_auto+0x574>
 3900a64:	2843fffe 	slti	v1,v0,-2
 3900a68:	10600012 	beqz	v1,3900ab4 <nvt_handle_fw_auto+0x534>
 3900a6c:	2403fffe 	li	v1,-2
 3900a70:	2403fffc 	li	v1,-4
 3900a74:	1443002a 	bne	v0,v1,3900b20 <nvt_handle_fw_auto+0x5a0>
 3900a78:	8f99807c 	lw	t9,-32644(gp)
 3900a7c:	0320f809 	jalr	t9
 3900a80:	24040001 	li	a0,1
 3900a84:	8fbc0010 	lw	gp,16(sp)
 3900a88:	00403021 	move	a2,v0
 3900a8c:	8f848044 	lw	a0,-32700(gp)
 3900a90:	8f858044 	lw	a1,-32700(gp)
 3900a94:	8f878044 	lw	a3,-32700(gp)
 3900a98:	8f998040 	lw	t9,-32704(gp)
 3900a9c:	248442a4 	addiu	a0,a0,17060
 3900aa0:	24a540e4 	addiu	a1,a1,16612
 3900aa4:	0320f809 	jalr	t9
 3900aa8:	24e740ec 	addiu	a3,a3,16620
 3900aac:	1000001c 	b	3900b20 <nvt_handle_fw_auto+0x5a0>
 3900ab0:	8fbc0010 	lw	gp,16(sp)
 3900ab4:	10430005 	beq	v0,v1,3900acc <nvt_handle_fw_auto+0x54c>
 3900ab8:	2403ffff 	li	v1,-1
 3900abc:	14430018 	bne	v0,v1,3900b20 <nvt_handle_fw_auto+0x5a0>
 3900ac0:	8f848044 	lw	a0,-32700(gp)
 3900ac4:	1000000d 	b	3900afc <nvt_handle_fw_auto+0x57c>
 3900ac8:	248440f4 	addiu	a0,a0,16628
 3900acc:	8f848044 	lw	a0,-32700(gp)
 3900ad0:	8f858044 	lw	a1,-32700(gp)
 3900ad4:	8f868044 	lw	a2,-32700(gp)
 3900ad8:	8f998040 	lw	t9,-32704(gp)
 3900adc:	2484426c 	addiu	a0,a0,17004
 3900ae0:	24a540e4 	addiu	a1,a1,16612
 3900ae4:	0320f809 	jalr	t9
 3900ae8:	24c640ec 	addiu	a2,a2,16620
 3900aec:	1000000c 	b	3900b20 <nvt_handle_fw_auto+0x5a0>
 3900af0:	8fbc0010 	lw	gp,16(sp)
 3900af4:	8f848044 	lw	a0,-32700(gp)
 3900af8:	24844290 	addiu	a0,a0,17040
 3900afc:	8f858044 	lw	a1,-32700(gp)
 3900b00:	8f868044 	lw	a2,-32700(gp)
 3900b04:	8f998040 	lw	t9,-32704(gp)
 3900b08:	24a54108 	addiu	a1,a1,16648
 3900b0c:	24c640ec 	addiu	a2,a2,16620
 3900b10:	0320f809 	jalr	t9
 3900b14:	00000000 	nop
 3900b18:	1000fef1 	b	39006e0 <nvt_handle_fw_auto+0x160>
 3900b1c:	00000000 	nop
 3900b20:	8f998080 	lw	t9,-32640(gp)
 3900b24:	0320f809 	jalr	t9
 3900b28:	00000000 	nop
 3900b2c:	04410010 	bgez	v0,3900b70 <nvt_handle_fw_auto+0x5f0>
 3900b30:	8fbc0010 	lw	gp,16(sp)
 3900b34:	8f848044 	lw	a0,-32700(gp)
 3900b38:	8f998040 	lw	t9,-32704(gp)
 3900b3c:	0320f809 	jalr	t9
 3900b40:	24844214 	addiu	a0,a0,16916
 3900b44:	1000000a 	b	3900b70 <nvt_handle_fw_auto+0x5f0>
 3900b48:	8fbc0010 	lw	gp,16(sp)
 3900b4c:	8f848044 	lw	a0,-32700(gp)
 3900b50:	8f858044 	lw	a1,-32700(gp)
 3900b54:	8f868044 	lw	a2,-32700(gp)
 3900b58:	8f998040 	lw	t9,-32704(gp)
 3900b5c:	248442c4 	addiu	a0,a0,17092
 3900b60:	24a540e4 	addiu	a1,a1,16612
 3900b64:	0320f809 	jalr	t9
 3900b68:	24c640ec 	addiu	a2,a2,16620
 3900b6c:	8fbc0010 	lw	gp,16(sp)
 3900b70:	8f918044 	lw	s1,-32700(gp)
 3900b74:	8f998068 	lw	t9,-32664(gp)
 3900b78:	0320f809 	jalr	t9
 3900b7c:	262441a4 	addiu	a0,s1,16804
 3900b80:	02602021 	move	a0,s3
 3900b84:	8fbc0010 	lw	gp,16(sp)
 3900b88:	00403021 	move	a2,v0
 3900b8c:	8f858044 	lw	a1,-32700(gp)
 3900b90:	8f99806c 	lw	t9,-32660(gp)
 3900b94:	0320f809 	jalr	t9
 3900b98:	24a541b0 	addiu	a1,a1,16816
 3900b9c:	02402021 	move	a0,s2
 3900ba0:	8fbc0010 	lw	gp,16(sp)
 3900ba4:	8f998070 	lw	t9,-32656(gp)
 3900ba8:	0320f809 	jalr	t9
 3900bac:	02602821 	move	a1,s3
 3900bb0:	00002821 	move	a1,zero
 3900bb4:	8fbc0010 	lw	gp,16(sp)
 3900bb8:	8f998074 	lw	t9,-32652(gp)
 3900bbc:	0320f809 	jalr	t9
 3900bc0:	02402021 	move	a0,s2
 3900bc4:	04400007 	bltz	v0,3900be4 <nvt_handle_fw_auto+0x664>
 3900bc8:	8fbc0010 	lw	gp,16(sp)
 3900bcc:	8f998088 	lw	t9,-32632(gp)
 3900bd0:	262441a4 	addiu	a0,s1,16804
 3900bd4:	0320f809 	jalr	t9
 3900bd8:	02402821 	move	a1,s2
 3900bdc:	10000003 	b	3900bec <nvt_handle_fw_auto+0x66c>
 3900be0:	8fbf102c 	lw	ra,4140(sp)
 3900be4:	00408021 	move	s0,v0
 3900be8:	8fbf102c 	lw	ra,4140(sp)
 3900bec:	02001021 	move	v0,s0
 3900bf0:	8fb41028 	lw	s4,4136(sp)
 3900bf4:	8fb31024 	lw	s3,4132(sp)
 3900bf8:	8fb21020 	lw	s2,4128(sp)
 3900bfc:	8fb1101c 	lw	s1,4124(sp)
 3900c00:	8fb01018 	lw	s0,4120(sp)
 3900c04:	03e00008 	jr	ra
 3900c08:	27bd1030 	addiu	sp,sp,4144

03900c0c <initdram>:
 3900c0c:	03e00008 	jr	ra
 3900c10:	3c020070 	lui	v0,0x70

03900c14 <checkboard>:
 3900c14:	3c1c0004 	lui	gp,0x4
 3900c18:	279c5cec 	addiu	gp,gp,23788
 3900c1c:	0399e021 	addu	gp,gp,t9
 3900c20:	8f848044 	lw	a0,-32700(gp)
 3900c24:	27bdffe0 	addiu	sp,sp,-32
 3900c28:	8f998040 	lw	t9,-32704(gp)
 3900c2c:	afbf001c 	sw	ra,28(sp)
 3900c30:	afbc0010 	sw	gp,16(sp)
 3900c34:	0320f809 	jalr	t9
 3900c38:	248442e0 	addiu	a0,a0,17120
 3900c3c:	00001021 	move	v0,zero
 3900c40:	8fbf001c 	lw	ra,28(sp)
 3900c44:	03e00008 	jr	ra
 3900c48:	27bd0020 	addiu	sp,sp,32

03900c4c <board_early_init_f>:
 3900c4c:	3c1c0004 	lui	gp,0x4
 3900c50:	279c5cb4 	addiu	gp,gp,23732
 3900c54:	0399e021 	addu	gp,gp,t9
 3900c58:	27bdffe0 	addiu	sp,sp,-32
 3900c5c:	8f99808c 	lw	t9,-32628(gp)
 3900c60:	afbf001c 	sw	ra,28(sp)
 3900c64:	afbc0010 	sw	gp,16(sp)
 3900c68:	0320f809 	jalr	t9
 3900c6c:	00000000 	nop
 3900c70:	00001021 	move	v0,zero
 3900c74:	8fbf001c 	lw	ra,28(sp)
 3900c78:	03e00008 	jr	ra
 3900c7c:	27bd0020 	addiu	sp,sp,32

03900c80 <board_mmc_init>:
 3900c80:	3c1c0004 	lui	gp,0x4
 3900c84:	279c5c80 	addiu	gp,gp,23680
 3900c88:	0399e021 	addu	gp,gp,t9
 3900c8c:	27bdffd8 	addiu	sp,sp,-40
 3900c90:	afb20020 	sw	s2,32(sp)
 3900c94:	24120003 	li	s2,3
 3900c98:	afb1001c 	sw	s1,28(sp)
 3900c9c:	24110001 	li	s1,1
 3900ca0:	afb00018 	sw	s0,24(sp)
 3900ca4:	00008021 	move	s0,zero
 3900ca8:	afbc0010 	sw	gp,16(sp)
 3900cac:	afbf0024 	sw	ra,36(sp)
 3900cb0:	02111007 	srav	v0,s1,s0
 3900cb4:	14400006 	bnez	v0,3900cd0 <board_mmc_init+0x50>
 3900cb8:	8f998090 	lw	t9,-32624(gp)
 3900cbc:	26100001 	addiu	s0,s0,1
 3900cc0:	5612fffc 	bnel	s0,s2,3900cb4 <board_mmc_init+0x34>
 3900cc4:	02111007 	srav	v0,s1,s0
 3900cc8:	10000005 	b	3900ce0 <board_mmc_init+0x60>
 3900ccc:	00001021 	move	v0,zero
 3900cd0:	0320f809 	jalr	t9
 3900cd4:	02002021 	move	a0,s0
 3900cd8:	1040fff8 	beqz	v0,3900cbc <board_mmc_init+0x3c>
 3900cdc:	8fbc0010 	lw	gp,16(sp)
 3900ce0:	8fbf0024 	lw	ra,36(sp)
 3900ce4:	8fb20020 	lw	s2,32(sp)
 3900ce8:	8fb1001c 	lw	s1,28(sp)
 3900cec:	8fb00018 	lw	s0,24(sp)
 3900cf0:	03e00008 	jr	ra
 3900cf4:	27bd0028 	addiu	sp,sp,40

03900cf8 <misc_init_r>:
 3900cf8:	3c1c0004 	lui	gp,0x4
 3900cfc:	279c5c08 	addiu	gp,gp,23560
 3900d00:	0399e021 	addu	gp,gp,t9
 3900d04:	27bdffd0 	addiu	sp,sp,-48
 3900d08:	8f99807c 	lw	t9,-32644(gp)
 3900d0c:	24040001 	li	a0,1
 3900d10:	afbf002c 	sw	ra,44(sp)
 3900d14:	afbc0018 	sw	gp,24(sp)
 3900d18:	afb10028 	sw	s1,40(sp)
 3900d1c:	0320f809 	jalr	t9
 3900d20:	afb00024 	sw	s0,36(sp)
 3900d24:	24040002 	li	a0,2
 3900d28:	8fbc0018 	lw	gp,24(sp)
 3900d2c:	8f99807c 	lw	t9,-32644(gp)
 3900d30:	0320f809 	jalr	t9
 3900d34:	00408821 	move	s1,v0
 3900d38:	24040003 	li	a0,3
 3900d3c:	8fbc0018 	lw	gp,24(sp)
 3900d40:	8f99807c 	lw	t9,-32644(gp)
 3900d44:	0320f809 	jalr	t9
 3900d48:	00408021 	move	s0,v0
 3900d4c:	02203021 	move	a2,s1
 3900d50:	8fbc0018 	lw	gp,24(sp)
 3900d54:	02003821 	move	a3,s0
 3900d58:	afa20010 	sw	v0,16(sp)
 3900d5c:	8f838044 	lw	v1,-32700(gp)
 3900d60:	8f848044 	lw	a0,-32700(gp)
 3900d64:	8f858044 	lw	a1,-32700(gp)
 3900d68:	246340ec 	addiu	v1,v1,16620
 3900d6c:	8f998040 	lw	t9,-32704(gp)
 3900d70:	248442f4 	addiu	a0,a0,17140
 3900d74:	24a540e4 	addiu	a1,a1,16612
 3900d78:	0320f809 	jalr	t9
 3900d7c:	afa30014 	sw	v1,20(sp)
 3900d80:	8fbc0018 	lw	gp,24(sp)
 3900d84:	8f998094 	lw	t9,-32620(gp)
 3900d88:	0320f809 	jalr	t9
 3900d8c:	00000000 	nop
 3900d90:	8fbc0018 	lw	gp,24(sp)
 3900d94:	8f998024 	lw	t9,-32732(gp)
 3900d98:	27390580 	addiu	t9,t9,1408
 3900d9c:	0320f809 	jalr	t9
 3900da0:	00000000 	nop
 3900da4:	8fbc0018 	lw	gp,24(sp)
 3900da8:	04400011 	bltz	v0,3900df0 <misc_init_r+0xf8>
 3900dac:	00401821 	move	v1,v0
 3900db0:	8f998098 	lw	t9,-32616(gp)
 3900db4:	0320f809 	jalr	t9
 3900db8:	00000000 	nop
 3900dbc:	8fbc0018 	lw	gp,24(sp)
 3900dc0:	8f99809c 	lw	t9,-32612(gp)
 3900dc4:	0320f809 	jalr	t9
 3900dc8:	00000000 	nop
 3900dcc:	00001821 	move	v1,zero
 3900dd0:	8fbc0018 	lw	gp,24(sp)
 3900dd4:	04410006 	bgez	v0,3900df0 <misc_init_r+0xf8>
 3900dd8:	00408021 	move	s0,v0
 3900ddc:	8f848044 	lw	a0,-32700(gp)
 3900de0:	8f998040 	lw	t9,-32704(gp)
 3900de4:	0320f809 	jalr	t9
 3900de8:	24844314 	addiu	a0,a0,17172
 3900dec:	02001821 	move	v1,s0
 3900df0:	8fbf002c 	lw	ra,44(sp)
 3900df4:	00601021 	move	v0,v1
 3900df8:	8fb10028 	lw	s1,40(sp)
 3900dfc:	8fb00024 	lw	s0,36(sp)
 3900e00:	03e00008 	jr	ra
 3900e04:	27bd0030 	addiu	sp,sp,48

03900e08 <do_nvt_bootm_cmd>:
 3900e08:	3c1c0004 	lui	gp,0x4
 3900e0c:	279c5af8 	addiu	gp,gp,23288
 3900e10:	0399e021 	addu	gp,gp,t9
 3900e14:	27bdfee0 	addiu	sp,sp,-288
 3900e18:	8f998038 	lw	t9,-32712(gp)
 3900e1c:	00002821 	move	a1,zero
 3900e20:	afb00118 	sw	s0,280(sp)
 3900e24:	27b00018 	addiu	s0,sp,24
 3900e28:	24060100 	li	a2,256
 3900e2c:	afbf011c 	sw	ra,284(sp)
 3900e30:	afbc0010 	sw	gp,16(sp)
 3900e34:	0320f809 	jalr	t9
 3900e38:	02002021 	move	a0,s0
 3900e3c:	3c060350 	lui	a2,0x350
 3900e40:	8fbc0010 	lw	gp,16(sp)
 3900e44:	02002021 	move	a0,s0
 3900e48:	8f858044 	lw	a1,-32700(gp)
 3900e4c:	8f99806c 	lw	t9,-32660(gp)
 3900e50:	0320f809 	jalr	t9
 3900e54:	24a5433c 	addiu	a1,a1,17212
 3900e58:	02002821 	move	a1,s0
 3900e5c:	8fbc0010 	lw	gp,16(sp)
 3900e60:	8f848044 	lw	a0,-32700(gp)
 3900e64:	8f998040 	lw	t9,-32704(gp)
 3900e68:	0320f809 	jalr	t9
 3900e6c:	24844348 	addiu	a0,a0,17224
 3900e70:	00002821 	move	a1,zero
 3900e74:	8fbc0010 	lw	gp,16(sp)
 3900e78:	8f9980a0 	lw	t9,-32608(gp)
 3900e7c:	0320f809 	jalr	t9
 3900e80:	02002021 	move	a0,s0
 3900e84:	00001021 	move	v0,zero
 3900e88:	8fbf011c 	lw	ra,284(sp)
 3900e8c:	8fb00118 	lw	s0,280(sp)
 3900e90:	03e00008 	jr	ra
 3900e94:	27bd0120 	addiu	sp,sp,288

03900e98 <nvt_on_partition_enum_copy_to_dest>:
 3900e98:	3c1c0004 	lui	gp,0x4
 3900e9c:	279c5a68 	addiu	gp,gp,23144
 3900ea0:	0399e021 	addu	gp,gp,t9
 3900ea4:	27bdffc8 	addiu	sp,sp,-56
 3900ea8:	8f9980a4 	lw	t9,-32604(gp)
 3900eac:	afb00020 	sw	s0,32(sp)
 3900eb0:	afb3002c 	sw	s3,44(sp)
 3900eb4:	00809821 	move	s3,a0
 3900eb8:	afbc0010 	sw	gp,16(sp)
 3900ebc:	afbf0034 	sw	ra,52(sp)
 3900ec0:	afb40030 	sw	s4,48(sp)
 3900ec4:	00c0a021 	move	s4,a2
 3900ec8:	afb10024 	sw	s1,36(sp)
 3900ecc:	00a08821 	move	s1,a1
 3900ed0:	afb20028 	sw	s2,40(sp)
 3900ed4:	8f908044 	lw	s0,-32700(gp)
 3900ed8:	0320f809 	jalr	t9
 3900edc:	26044358 	addiu	a0,s0,17240
 3900ee0:	26054358 	addiu	a1,s0,17240
 3900ee4:	8fbc0010 	lw	gp,16(sp)
 3900ee8:	24042010 	li	a0,8208
 3900eec:	00403021 	move	a2,v0
 3900ef0:	8f9980a8 	lw	t9,-32600(gp)
 3900ef4:	0320f809 	jalr	t9
 3900ef8:	00008021 	move	s0,zero
 3900efc:	14400010 	bnez	v0,3900f40 <nvt_on_partition_enum_copy_to_dest+0xa8>
 3900f00:	8fbc0010 	lw	gp,16(sp)
 3900f04:	8c022030 	lw	v0,8240(zero)
 3900f08:	24102000 	li	s0,8192
 3900f0c:	24040007 	li	a0,7
 3900f10:	24422000 	addiu	v0,v0,8192
 3900f14:	8e030000 	lw	v1,0(s0)
 3900f18:	50600009 	beqzl	v1,3900f40 <nvt_on_partition_enum_copy_to_dest+0xa8>
 3900f1c:	00008021 	move	s0,zero
 3900f20:	8e050004 	lw	a1,4(s0)
 3900f24:	50a40006 	beql	a1,a0,3900f40 <nvt_on_partition_enum_copy_to_dest+0xa8>
 3900f28:	26100010 	addiu	s0,s0,16
 3900f2c:	02038021 	addu	s0,s0,v1
 3900f30:	0202182b 	sltu	v1,s0,v0
 3900f34:	5460fff8 	bnezl	v1,3900f18 <nvt_on_partition_enum_copy_to_dest+0x80>
 3900f38:	8e030000 	lw	v1,0(s0)
 3900f3c:	00008021 	move	s0,zero
 3900f40:	00139900 	sll	s3,s3,0x4
 3900f44:	24030002 	li	v1,2
 3900f48:	02939821 	addu	s3,s4,s3
 3900f4c:	96620000 	lhu	v0,0(s3)
 3900f50:	10430021 	beq	v0,v1,3900fd8 <nvt_on_partition_enum_copy_to_dest+0x140>
 3900f54:	8e320000 	lw	s2,0(s1)
 3900f58:	2c430003 	sltiu	v1,v0,3
 3900f5c:	10600007 	beqz	v1,3900f7c <nvt_on_partition_enum_copy_to_dest+0xe4>
 3900f60:	24030004 	li	v1,4
 3900f64:	24030001 	li	v1,1
 3900f68:	54430076 	bnel	v0,v1,3901144 <nvt_on_partition_enum_copy_to_dest+0x2ac>
 3900f6c:	00001021 	move	v0,zero
 3900f70:	8f848044 	lw	a0,-32700(gp)
 3900f74:	1000001a 	b	3900fe0 <nvt_on_partition_enum_copy_to_dest+0x148>
 3900f78:	24844364 	addiu	a0,a0,17252
 3900f7c:	1043001d 	beq	v0,v1,3900ff4 <nvt_on_partition_enum_copy_to_dest+0x15c>
 3900f80:	24030006 	li	v1,6
 3900f84:	5443006f 	bnel	v0,v1,3901144 <nvt_on_partition_enum_copy_to_dest+0x2ac>
 3900f88:	00001021 	move	v0,zero
 3900f8c:	8f848044 	lw	a0,-32700(gp)
 3900f90:	3c060350 	lui	a2,0x350
 3900f94:	8f998040 	lw	t9,-32704(gp)
 3900f98:	02402821 	move	a1,s2
 3900f9c:	8e270004 	lw	a3,4(s1)
 3900fa0:	0320f809 	jalr	t9
 3900fa4:	2484447c 	addiu	a0,a0,17532
 3900fa8:	3c040350 	lui	a0,0x350
 3900fac:	8fbc0010 	lw	gp,16(sp)
 3900fb0:	8e250000 	lw	a1,0(s1)
 3900fb4:	8f9980ac 	lw	t9,-32596(gp)
 3900fb8:	0320f809 	jalr	t9
 3900fbc:	8e260004 	lw	a2,4(s1)
 3900fc0:	3c050350 	lui	a1,0x350
 3900fc4:	8e220004 	lw	v0,4(s1)
 3900fc8:	3c040350 	lui	a0,0x350
 3900fcc:	8fbc0010 	lw	gp,16(sp)
 3900fd0:	10000058 	b	3901134 <nvt_on_partition_enum_copy_to_dest+0x29c>
 3900fd4:	00a22821 	addu	a1,a1,v0
 3900fd8:	8f848044 	lw	a0,-32700(gp)
 3900fdc:	24844380 	addiu	a0,a0,17280
 3900fe0:	8f998040 	lw	t9,-32704(gp)
 3900fe4:	0320f809 	jalr	t9
 3900fe8:	00000000 	nop
 3900fec:	10000054 	b	3901140 <nvt_on_partition_enum_copy_to_dest+0x2a8>
 3900ff0:	00000000 	nop
 3900ff4:	3c02314c 	lui	v0,0x314c
 3900ff8:	8e430000 	lw	v1,0(s2)
 3900ffc:	8f998040 	lw	t9,-32704(gp)
 3901000:	24424342 	addiu	v0,v0,17218
 3901004:	1462003c 	bne	v1,v0,39010f8 <nvt_on_partition_enum_copy_to_dest+0x260>
 3901008:	8e270004 	lw	a3,4(s1)
 390100c:	8f848044 	lw	a0,-32700(gp)
 3901010:	02402821 	move	a1,s2
 3901014:	00e03021 	move	a2,a3
 3901018:	0320f809 	jalr	t9
 390101c:	248443a0 	addiu	a0,a0,17312
 3901020:	2403000b 	li	v1,11
 3901024:	8e420004 	lw	v0,4(s2)
 3901028:	8fbc0010 	lw	gp,16(sp)
 390102c:	7c0210a0 	wsbh	v0,v0
 3901030:	00221402 	ror	v0,v0,0x10
 3901034:	8f998040 	lw	t9,-32704(gp)
 3901038:	8f858044 	lw	a1,-32700(gp)
 390103c:	304200ff 	andi	v0,v0,0xff
 3901040:	1443001d 	bne	v0,v1,39010b8 <nvt_on_partition_enum_copy_to_dest+0x220>
 3901044:	8f868044 	lw	a2,-32700(gp)
 3901048:	8f848044 	lw	a0,-32700(gp)
 390104c:	24a540e4 	addiu	a1,a1,16612
 3901050:	24c640ec 	addiu	a2,a2,16620
 3901054:	0320f809 	jalr	t9
 3901058:	248443e0 	addiu	a0,a0,17376
 390105c:	27a50018 	addiu	a1,sp,24
 3901060:	8e420008 	lw	v0,8(s2)
 3901064:	8fbc0010 	lw	gp,16(sp)
 3901068:	8e47000c 	lw	a3,12(s2)
 390106c:	7c0210a0 	wsbh	v0,v0
 3901070:	8e260000 	lw	a2,0(s1)
 3901074:	8e040040 	lw	a0,64(s0)
 3901078:	00221402 	ror	v0,v0,0x10
 390107c:	8f9980b0 	lw	t9,-32592(gp)
 3901080:	7c0738a0 	wsbh	a3,a3
 3901084:	24c60010 	addiu	a2,a2,16
 3901088:	00273c02 	ror	a3,a3,0x10
 390108c:	0320f809 	jalr	t9
 3901090:	afa20018 	sw	v0,24(sp)
 3901094:	8fbc0010 	lw	gp,16(sp)
 3901098:	10400023 	beqz	v0,3901128 <nvt_on_partition_enum_copy_to_dest+0x290>
 390109c:	00408821 	move	s1,v0
 39010a0:	8f848044 	lw	a0,-32700(gp)
 39010a4:	8f998040 	lw	t9,-32704(gp)
 39010a8:	0320f809 	jalr	t9
 39010ac:	24844400 	addiu	a0,a0,17408
 39010b0:	10000024 	b	3901144 <nvt_on_partition_enum_copy_to_dest+0x2ac>
 39010b4:	02201021 	move	v0,s1
 39010b8:	8f848044 	lw	a0,-32700(gp)
 39010bc:	24a540e4 	addiu	a1,a1,16612
 39010c0:	24c640ec 	addiu	a2,a2,16620
 39010c4:	0320f809 	jalr	t9
 39010c8:	24844418 	addiu	a0,a0,17432
 39010cc:	8fbc0010 	lw	gp,16(sp)
 39010d0:	8e46000c 	lw	a2,12(s2)
 39010d4:	8e240000 	lw	a0,0(s1)
 39010d8:	8e050040 	lw	a1,64(s0)
 39010dc:	7c0630a0 	wsbh	a2,a2
 39010e0:	8f9980b4 	lw	t9,-32588(gp)
 39010e4:	24840010 	addiu	a0,a0,16
 39010e8:	0320f809 	jalr	t9
 39010ec:	00263402 	ror	a2,a2,0x10
 39010f0:	1000000d 	b	3901128 <nvt_on_partition_enum_copy_to_dest+0x290>
 39010f4:	8fbc0010 	lw	gp,16(sp)
 39010f8:	8f848044 	lw	a0,-32700(gp)
 39010fc:	02402821 	move	a1,s2
 3901100:	8e060040 	lw	a2,64(s0)
 3901104:	0320f809 	jalr	t9
 3901108:	24844438 	addiu	a0,a0,17464
 390110c:	8fbc0010 	lw	gp,16(sp)
 3901110:	8e040040 	lw	a0,64(s0)
 3901114:	8e250000 	lw	a1,0(s1)
 3901118:	8f9980ac 	lw	t9,-32596(gp)
 390111c:	0320f809 	jalr	t9
 3901120:	8e260004 	lw	a2,4(s1)
 3901124:	8fbc0010 	lw	gp,16(sp)
 3901128:	8e040040 	lw	a0,64(s0)
 390112c:	8e050044 	lw	a1,68(s0)
 3901130:	00852821 	addu	a1,a0,a1
 3901134:	8f99804c 	lw	t9,-32692(gp)
 3901138:	0320f809 	jalr	t9
 390113c:	00000000 	nop
 3901140:	00001021 	move	v0,zero
 3901144:	8fbf0034 	lw	ra,52(sp)
 3901148:	8fb40030 	lw	s4,48(sp)
 390114c:	8fb3002c 	lw	s3,44(sp)
 3901150:	8fb20028 	lw	s2,40(sp)
 3901154:	8fb10024 	lw	s1,36(sp)
 3901158:	8fb00020 	lw	s0,32(sp)
 390115c:	03e00008 	jr	ra
 3901160:	27bd0038 	addiu	sp,sp,56

03901164 <nvt_on_itron_partition_enum_copy_to_dest>:
 3901164:	3c1c0004 	lui	gp,0x4
 3901168:	279c579c 	addiu	gp,gp,22428
 390116c:	0399e021 	addu	gp,gp,t9
 3901170:	00042100 	sll	a0,a0,0x4
 3901174:	27bdffd0 	addiu	sp,sp,-48
 3901178:	00c43021 	addu	a2,a2,a0
 390117c:	24020003 	li	v0,3
 3901180:	afbc0010 	sw	gp,16(sp)
 3901184:	afb10028 	sw	s1,40(sp)
 3901188:	afbf002c 	sw	ra,44(sp)
 390118c:	afb00024 	sw	s0,36(sp)
 3901190:	94c30000 	lhu	v1,0(a2)
 3901194:	14620056 	bne	v1,v0,39012f0 <nvt_on_itron_partition_enum_copy_to_dest+0x18c>
 3901198:	8cb10000 	lw	s1,0(a1)
 390119c:	3c02314c 	lui	v0,0x314c
 39011a0:	8e230000 	lw	v1,0(s1)
 39011a4:	00a08021 	move	s0,a1
 39011a8:	8ca70004 	lw	a3,4(a1)
 39011ac:	24424342 	addiu	v0,v0,17218
 39011b0:	1462003d 	bne	v1,v0,39012a8 <nvt_on_itron_partition_enum_copy_to_dest+0x144>
 39011b4:	8f998040 	lw	t9,-32704(gp)
 39011b8:	8f848044 	lw	a0,-32700(gp)
 39011bc:	02202821 	move	a1,s1
 39011c0:	00e03021 	move	a2,a3
 39011c4:	0320f809 	jalr	t9
 39011c8:	248444bc 	addiu	a0,a0,17596
 39011cc:	2403000b 	li	v1,11
 39011d0:	8e220004 	lw	v0,4(s1)
 39011d4:	7c0210a0 	wsbh	v0,v0
 39011d8:	00221402 	ror	v0,v0,0x10
 39011dc:	304200ff 	andi	v0,v0,0xff
 39011e0:	14430024 	bne	v0,v1,3901274 <nvt_on_itron_partition_enum_copy_to_dest+0x110>
 39011e4:	8fbc0010 	lw	gp,16(sp)
 39011e8:	8f848044 	lw	a0,-32700(gp)
 39011ec:	8f858044 	lw	a1,-32700(gp)
 39011f0:	8f868044 	lw	a2,-32700(gp)
 39011f4:	8f998040 	lw	t9,-32704(gp)
 39011f8:	248444fc 	addiu	a0,a0,17660
 39011fc:	24a540e4 	addiu	a1,a1,16612
 3901200:	0320f809 	jalr	t9
 3901204:	24c640ec 	addiu	a2,a2,16620
 3901208:	27a50018 	addiu	a1,sp,24
 390120c:	8e220008 	lw	v0,8(s1)
 3901210:	8fbc0010 	lw	gp,16(sp)
 3901214:	8e27000c 	lw	a3,12(s1)
 3901218:	3c110010 	lui	s1,0x10
 390121c:	7c0210a0 	wsbh	v0,v0
 3901220:	8e060000 	lw	a2,0(s0)
 3901224:	26241000 	addiu	a0,s1,4096
 3901228:	00221402 	ror	v0,v0,0x10
 390122c:	8f9980b0 	lw	t9,-32592(gp)
 3901230:	7c0738a0 	wsbh	a3,a3
 3901234:	24c60010 	addiu	a2,a2,16
 3901238:	00273c02 	ror	a3,a3,0x10
 390123c:	0320f809 	jalr	t9
 3901240:	afa20018 	sw	v0,24(sp)
 3901244:	8fbc0010 	lw	gp,16(sp)
 3901248:	10400007 	beqz	v0,3901268 <nvt_on_itron_partition_enum_copy_to_dest+0x104>
 390124c:	00408021 	move	s0,v0
 3901250:	8f848044 	lw	a0,-32700(gp)
 3901254:	8f998040 	lw	t9,-32704(gp)
 3901258:	0320f809 	jalr	t9
 390125c:	24844400 	addiu	a0,a0,17408
 3901260:	10000024 	b	39012f4 <nvt_on_itron_partition_enum_copy_to_dest+0x190>
 3901264:	02001021 	move	v0,s0
 3901268:	36241000 	ori	a0,s1,0x1000
 390126c:	1000001d 	b	39012e4 <nvt_on_itron_partition_enum_copy_to_dest+0x180>
 3901270:	8fa50018 	lw	a1,24(sp)
 3901274:	8f8280b8 	lw	v0,-32584(gp)
 3901278:	8e030000 	lw	v1,0(s0)
 390127c:	8c420000 	lw	v0,0(v0)
 3901280:	ac430000 	sw	v1,0(v0)
 3901284:	8f8280bc 	lw	v0,-32580(gp)
 3901288:	8c430000 	lw	v1,0(v0)
 390128c:	8e22000c 	lw	v0,12(s1)
 3901290:	7c0210a0 	wsbh	v0,v0
 3901294:	00221402 	ror	v0,v0,0x10
 3901298:	24420010 	addiu	v0,v0,16
 390129c:	ac620000 	sw	v0,0(v1)
 39012a0:	10000014 	b	39012f4 <nvt_on_itron_partition_enum_copy_to_dest+0x190>
 39012a4:	00001021 	move	v0,zero
 39012a8:	8f848044 	lw	a0,-32700(gp)
 39012ac:	02202821 	move	a1,s1
 39012b0:	3c110010 	lui	s1,0x10
 39012b4:	2484451c 	addiu	a0,a0,17692
 39012b8:	0320f809 	jalr	t9
 39012bc:	26261000 	addiu	a2,s1,4096
 39012c0:	36241000 	ori	a0,s1,0x1000
 39012c4:	8fbc0010 	lw	gp,16(sp)
 39012c8:	8e050000 	lw	a1,0(s0)
 39012cc:	8f9980ac 	lw	t9,-32596(gp)
 39012d0:	0320f809 	jalr	t9
 39012d4:	8e060004 	lw	a2,4(s0)
 39012d8:	36241000 	ori	a0,s1,0x1000
 39012dc:	8fbc0010 	lw	gp,16(sp)
 39012e0:	8e050004 	lw	a1,4(s0)
 39012e4:	8f99804c 	lw	t9,-32692(gp)
 39012e8:	0320f809 	jalr	t9
 39012ec:	00a42821 	addu	a1,a1,a0
 39012f0:	00001021 	move	v0,zero
 39012f4:	8fbf002c 	lw	ra,44(sp)
 39012f8:	8fb10028 	lw	s1,40(sp)
 39012fc:	8fb00024 	lw	s0,36(sp)
 3901300:	03e00008 	jr	ra
 3901304:	27bd0030 	addiu	sp,sp,48

03901308 <do_nvt_update_all_cmd>:
 3901308:	3c1c0004 	lui	gp,0x4
 390130c:	279c55f8 	addiu	gp,gp,22008
 3901310:	0399e021 	addu	gp,gp,t9
 3901314:	24030003 	li	v1,3
 3901318:	14c30039 	bne	a2,v1,3901400 <do_nvt_update_all_cmd+0xf8>
 390131c:	2402ffff 	li	v0,-1
 3901320:	27bdffd0 	addiu	sp,sp,-48
 3901324:	8ce40000 	lw	a0,0(a3)
 3901328:	8f9980c0 	lw	t9,-32576(gp)
 390132c:	24050004 	li	a1,4
 3901330:	afbf002c 	sw	ra,44(sp)
 3901334:	afbc0018 	sw	gp,24(sp)
 3901338:	afb10028 	sw	s1,40(sp)
 390133c:	afb00024 	sw	s0,36(sp)
 3901340:	0320f809 	jalr	t9
 3901344:	00e08021 	move	s0,a3
 3901348:	00002821 	move	a1,zero
 390134c:	8fbc0018 	lw	gp,24(sp)
 3901350:	24060010 	li	a2,16
 3901354:	8f9980c4 	lw	t9,-32572(gp)
 3901358:	0320f809 	jalr	t9
 390135c:	8e040004 	lw	a0,4(s0)
 3901360:	00002821 	move	a1,zero
 3901364:	8fbc0018 	lw	gp,24(sp)
 3901368:	2406000a 	li	a2,10
 390136c:	8e040008 	lw	a0,8(s0)
 3901370:	8f9980c4 	lw	t9,-32572(gp)
 3901374:	0320f809 	jalr	t9
 3901378:	00408821 	move	s1,v0
 390137c:	02203021 	move	a2,s1
 3901380:	8fbc0018 	lw	gp,24(sp)
 3901384:	00403821 	move	a3,v0
 3901388:	afa20010 	sw	v0,16(sp)
 390138c:	00408021 	move	s0,v0
 3901390:	8f838044 	lw	v1,-32700(gp)
 3901394:	8f848044 	lw	a0,-32700(gp)
 3901398:	8f858044 	lw	a1,-32700(gp)
 390139c:	246340ec 	addiu	v1,v1,16620
 39013a0:	8f998040 	lw	t9,-32704(gp)
 39013a4:	2484455c 	addiu	a0,a0,17756
 39013a8:	24a540e4 	addiu	a1,a1,16612
 39013ac:	0320f809 	jalr	t9
 39013b0:	afa30014 	sw	v1,20(sp)
 39013b4:	00003021 	move	a2,zero
 39013b8:	8fbc0018 	lw	gp,24(sp)
 39013bc:	02002821 	move	a1,s0
 39013c0:	8f9980c8 	lw	t9,-32568(gp)
 39013c4:	0320f809 	jalr	t9
 39013c8:	02202021 	move	a0,s1
 39013cc:	00408021 	move	s0,v0
 39013d0:	8fbc0018 	lw	gp,24(sp)
 39013d4:	06010006 	bgez	s0,39013f0 <do_nvt_update_all_cmd+0xe8>
 39013d8:	00001021 	move	v0,zero
 39013dc:	8f848044 	lw	a0,-32700(gp)
 39013e0:	8f998040 	lw	t9,-32704(gp)
 39013e4:	0320f809 	jalr	t9
 39013e8:	2484458c 	addiu	a0,a0,17804
 39013ec:	02001021 	move	v0,s0
 39013f0:	8fbf002c 	lw	ra,44(sp)
 39013f4:	8fb10028 	lw	s1,40(sp)
 39013f8:	8fb00024 	lw	s0,36(sp)
 39013fc:	27bd0030 	addiu	sp,sp,48
 3901400:	03e00008 	jr	ra
 3901404:	00000000 	nop

03901408 <nvt_runfw_bin_unpack_to_dest.constprop.1>:
 3901408:	3c1c0004 	lui	gp,0x4
 390140c:	279c54f8 	addiu	gp,gp,21752
 3901410:	0399e021 	addu	gp,gp,t9
 3901414:	27bdff88 	addiu	sp,sp,-120
 3901418:	8f8280cc 	lw	v0,-32564(gp)
 390141c:	8f998038 	lw	t9,-32712(gp)
 3901420:	00002821 	move	a1,zero
 3901424:	afb40060 	sw	s4,96(sp)
 3901428:	27b40028 	addiu	s4,sp,40
 390142c:	2406000c 	li	a2,12
 3901430:	afbf0074 	sw	ra,116(sp)
 3901434:	afbc0010 	sw	gp,16(sp)
 3901438:	afb60068 	sw	s6,104(sp)
 390143c:	0080b021 	move	s6,a0
 3901440:	afb50064 	sw	s5,100(sp)
 3901444:	02802021 	move	a0,s4
 3901448:	afb3005c 	sw	s3,92(sp)
 390144c:	27b50018 	addiu	s5,sp,24
 3901450:	afb10054 	sw	s1,84(sp)
 3901454:	afb00050 	sw	s0,80(sp)
 3901458:	afbe0070 	sw	s8,112(sp)
 390145c:	afb7006c 	sw	s7,108(sp)
 3901460:	afb20058 	sw	s2,88(sp)
 3901464:	afa00034 	sw	zero,52(sp)
 3901468:	afa00038 	sw	zero,56(sp)
 390146c:	0320f809 	jalr	t9
 3901470:	8c530004 	lw	s3,4(v0)
 3901474:	00002821 	move	a1,zero
 3901478:	8fbc0010 	lw	gp,16(sp)
 390147c:	24060010 	li	a2,16
 3901480:	8f998038 	lw	t9,-32712(gp)
 3901484:	0320f809 	jalr	t9
 3901488:	02a02021 	move	a0,s5
 390148c:	8fbc0010 	lw	gp,16(sp)
 3901490:	8f908044 	lw	s0,-32700(gp)
 3901494:	8f9980a4 	lw	t9,-32604(gp)
 3901498:	0320f809 	jalr	t9
 390149c:	26044358 	addiu	a0,s0,17240
 39014a0:	24042010 	li	a0,8208
 39014a4:	8fbc0010 	lw	gp,16(sp)
 39014a8:	26054358 	addiu	a1,s0,17240
 39014ac:	8f9980a8 	lw	t9,-32600(gp)
 39014b0:	0320f809 	jalr	t9
 39014b4:	00403021 	move	a2,v0
 39014b8:	8fbc0010 	lw	gp,16(sp)
 39014bc:	1440000f 	bnez	v0,39014fc <nvt_runfw_bin_unpack_to_dest.constprop.1+0xf4>
 39014c0:	00408821 	move	s1,v0
 39014c4:	8c022030 	lw	v0,8240(zero)
 39014c8:	24032000 	li	v1,8192
 39014cc:	24050005 	li	a1,5
 39014d0:	24422000 	addiu	v0,v0,8192
 39014d4:	8c640000 	lw	a0,0(v1)
 39014d8:	50800009 	beqzl	a0,3901500 <nvt_runfw_bin_unpack_to_dest.constprop.1+0xf8>
 39014dc:	8f848044 	lw	a0,-32700(gp)
 39014e0:	8c660004 	lw	a2,4(v1)
 39014e4:	10c50008 	beq	a2,a1,3901508 <nvt_runfw_bin_unpack_to_dest.constprop.1+0x100>
 39014e8:	24770010 	addiu	s7,v1,16
 39014ec:	00641821 	addu	v1,v1,a0
 39014f0:	0062202b 	sltu	a0,v1,v0
 39014f4:	5480fff8 	bnezl	a0,39014d8 <nvt_runfw_bin_unpack_to_dest.constprop.1+0xd0>
 39014f8:	8c640000 	lw	a0,0(v1)
 39014fc:	8f848044 	lw	a0,-32700(gp)
 3901500:	10000020 	b	3901584 <nvt_runfw_bin_unpack_to_dest.constprop.1+0x17c>
 3901504:	248445b4 	addiu	a0,a0,17844
 3901508:	12e0fffc 	beqz	s7,39014fc <nvt_runfw_bin_unpack_to_dest.constprop.1+0xf4>
 390150c:	3c1e0290 	lui	s8,0x290
 3901510:	27a20034 	addiu	v0,sp,52
 3901514:	24700028 	addiu	s0,v1,40
 3901518:	24120001 	li	s2,1
 390151c:	24070004 	li	a3,4
 3901520:	afa20040 	sw	v0,64(sp)
 3901524:	27de1000 	addiu	s8,s8,4096
 3901528:	24030010 	li	v1,16
 390152c:	8e020000 	lw	v0,0(s0)
 3901530:	54400019 	bnezl	v0,3901598 <nvt_runfw_bin_unpack_to_dest.constprop.1+0x190>
 3901534:	9602fff8 	lhu	v0,-8(s0)
 3901538:	26520001 	addiu	s2,s2,1
 390153c:	1643fffb 	bne	s2,v1,390152c <nvt_runfw_bin_unpack_to_dest.constprop.1+0x124>
 3901540:	26100010 	addiu	s0,s0,16
 3901544:	3c020290 	lui	v0,0x290
 3901548:	afb3001c 	sw	s3,28(sp)
 390154c:	afb70020 	sw	s7,32(sp)
 3901550:	24421000 	addiu	v0,v0,4096
 3901554:	12c00028 	beqz	s6,39015f8 <nvt_runfw_bin_unpack_to_dest.constprop.1+0x1f0>
 3901558:	afa20018 	sw	v0,24(sp)
 390155c:	8f828024 	lw	v0,-32732(gp)
 3901560:	24421164 	addiu	v0,v0,4452
 3901564:	8f9980d0 	lw	t9,-32560(gp)
 3901568:	02a02021 	move	a0,s5
 390156c:	0320f809 	jalr	t9
 3901570:	afa20024 	sw	v0,36(sp)
 3901574:	10400023 	beqz	v0,3901604 <nvt_runfw_bin_unpack_to_dest.constprop.1+0x1fc>
 3901578:	8fbc0010 	lw	gp,16(sp)
 390157c:	8f848044 	lw	a0,-32700(gp)
 3901580:	24844600 	addiu	a0,a0,17920
 3901584:	8f998040 	lw	t9,-32704(gp)
 3901588:	0320f809 	jalr	t9
 390158c:	00000000 	nop
 3901590:	1000001c 	b	3901604 <nvt_runfw_bin_unpack_to_dest.constprop.1+0x1fc>
 3901594:	2411ffff 	li	s1,-1
 3901598:	2442fffe 	addiu	v0,v0,-2
 390159c:	00e2102b 	sltu	v0,a3,v0
 39015a0:	5440ffe6 	bnezl	v0,390153c <nvt_runfw_bin_unpack_to_dest.constprop.1+0x134>
 39015a4:	26520001 	addiu	s2,s2,1
 39015a8:	8f9980d4 	lw	t9,-32556(gp)
 39015ac:	27a50034 	addiu	a1,sp,52
 39015b0:	afa30048 	sw	v1,72(sp)
 39015b4:	02802021 	move	a0,s4
 39015b8:	afa70044 	sw	a3,68(sp)
 39015bc:	afb20028 	sw	s2,40(sp)
 39015c0:	afbe002c 	sw	s8,44(sp)
 39015c4:	0320f809 	jalr	t9
 39015c8:	afb30030 	sw	s3,48(sp)
 39015cc:	8fbc0010 	lw	gp,16(sp)
 39015d0:	8fa30048 	lw	v1,72(sp)
 39015d4:	1040ffd8 	beqz	v0,3901538 <nvt_runfw_bin_unpack_to_dest.constprop.1+0x130>
 39015d8:	8fa70044 	lw	a3,68(sp)
 39015dc:	8f848044 	lw	a0,-32700(gp)
 39015e0:	02402821 	move	a1,s2
 39015e4:	8f998040 	lw	t9,-32704(gp)
 39015e8:	0320f809 	jalr	t9
 39015ec:	248445e0 	addiu	a0,a0,17888
 39015f0:	1000ffe7 	b	3901590 <nvt_runfw_bin_unpack_to_dest.constprop.1+0x188>
 39015f4:	00000000 	nop
 39015f8:	8f828024 	lw	v0,-32732(gp)
 39015fc:	1000ffd9 	b	3901564 <nvt_runfw_bin_unpack_to_dest.constprop.1+0x15c>
 3901600:	24420e98 	addiu	v0,v0,3736
 3901604:	8fbf0074 	lw	ra,116(sp)
 3901608:	02201021 	move	v0,s1
 390160c:	8fbe0070 	lw	s8,112(sp)
 3901610:	8fb7006c 	lw	s7,108(sp)
 3901614:	8fb60068 	lw	s6,104(sp)
 3901618:	8fb50064 	lw	s5,100(sp)
 390161c:	8fb40060 	lw	s4,96(sp)
 3901620:	8fb3005c 	lw	s3,92(sp)
 3901624:	8fb20058 	lw	s2,88(sp)
 3901628:	8fb10054 	lw	s1,84(sp)
 390162c:	8fb00050 	lw	s0,80(sp)
 3901630:	03e00008 	jr	ra
 3901634:	27bd0078 	addiu	sp,sp,120

03901638 <nvt_runfw_bin_chk_valid.constprop.2>:
 3901638:	3c1c0004 	lui	gp,0x4
 390163c:	279c52c8 	addiu	gp,gp,21192
 3901640:	0399e021 	addu	gp,gp,t9
 3901644:	8f8280cc 	lw	v0,-32564(gp)
 3901648:	27bdffc0 	addiu	sp,sp,-64
 390164c:	8f998038 	lw	t9,-32712(gp)
 3901650:	00002821 	move	a1,zero
 3901654:	27a40018 	addiu	a0,sp,24
 3901658:	afbc0010 	sw	gp,16(sp)
 390165c:	2406000c 	li	a2,12
 3901660:	afbf003c 	sw	ra,60(sp)
 3901664:	8c430004 	lw	v1,4(v0)
 3901668:	3c020290 	lui	v0,0x290
 390166c:	afa0002c 	sw	zero,44(sp)
 3901670:	24421000 	addiu	v0,v0,4096
 3901674:	afa00030 	sw	zero,48(sp)
 3901678:	afa30028 	sw	v1,40(sp)
 390167c:	0320f809 	jalr	t9
 3901680:	afa20024 	sw	v0,36(sp)
 3901684:	27a40024 	addiu	a0,sp,36
 3901688:	8fbc0010 	lw	gp,16(sp)
 390168c:	8f9980d8 	lw	t9,-32552(gp)
 3901690:	0320f809 	jalr	t9
 3901694:	27a5002c 	addiu	a1,sp,44
 3901698:	10400004 	beqz	v0,39016ac <nvt_runfw_bin_chk_valid.constprop.2+0x74>
 390169c:	8fbc0010 	lw	gp,16(sp)
 39016a0:	8f848044 	lw	a0,-32700(gp)
 39016a4:	10000007 	b	39016c4 <nvt_runfw_bin_chk_valid.constprop.2+0x8c>
 39016a8:	24844614 	addiu	a0,a0,17940
 39016ac:	8fa4002c 	lw	a0,44(sp)
 39016b0:	24030002 	li	v1,2
 39016b4:	10830007 	beq	a0,v1,39016d4 <nvt_runfw_bin_chk_valid.constprop.2+0x9c>
 39016b8:	00001021 	move	v0,zero
 39016bc:	8f848044 	lw	a0,-32700(gp)
 39016c0:	24844628 	addiu	a0,a0,17960
 39016c4:	8f998040 	lw	t9,-32704(gp)
 39016c8:	0320f809 	jalr	t9
 39016cc:	00000000 	nop
 39016d0:	2402ffff 	li	v0,-1
 39016d4:	8fbf003c 	lw	ra,60(sp)
 39016d8:	03e00008 	jr	ra
 39016dc:	27bd0040 	addiu	sp,sp,64

039016e0 <nvt_boot_itron_bin_auto>:
 39016e0:	3c1c0004 	lui	gp,0x4
 39016e4:	279c5220 	addiu	gp,gp,21024
 39016e8:	0399e021 	addu	gp,gp,t9
 39016ec:	27bdff10 	addiu	sp,sp,-240
 39016f0:	8f998038 	lw	t9,-32712(gp)
 39016f4:	00002821 	move	a1,zero
 39016f8:	afb100cc 	sw	s1,204(sp)
 39016fc:	27b10028 	addiu	s1,sp,40
 3901700:	24060080 	li	a2,128
 3901704:	afbf00ec 	sw	ra,236(sp)
 3901708:	afbc0020 	sw	gp,32(sp)
 390170c:	02202021 	move	a0,s1
 3901710:	afb200d0 	sw	s2,208(sp)
 3901714:	afb000c8 	sw	s0,200(sp)
 3901718:	afbe00e8 	sw	s8,232(sp)
 390171c:	afb700e4 	sw	s7,228(sp)
 3901720:	afb600e0 	sw	s6,224(sp)
 3901724:	afb500dc 	sw	s5,220(sp)
 3901728:	afb400d8 	sw	s4,216(sp)
 390172c:	0320f809 	jalr	t9
 3901730:	afb300d4 	sw	s3,212(sp)
 3901734:	00001821 	move	v1,zero
 3901738:	8fbc0020 	lw	gp,32(sp)
 390173c:	00001021 	move	v0,zero
 3901740:	afa300b4 	sw	v1,180(sp)
 3901744:	afa300ac 	sw	v1,172(sp)
 3901748:	afa200b0 	sw	v0,176(sp)
 390174c:	afa200a8 	sw	v0,168(sp)
 3901750:	8f908044 	lw	s0,-32700(gp)
 3901754:	8f9980a4 	lw	t9,-32604(gp)
 3901758:	0320f809 	jalr	t9
 390175c:	26044358 	addiu	a0,s0,17240
 3901760:	24042010 	li	a0,8208
 3901764:	8fbc0020 	lw	gp,32(sp)
 3901768:	26054358 	addiu	a1,s0,17240
 390176c:	8f9980a8 	lw	t9,-32600(gp)
 3901770:	0320f809 	jalr	t9
 3901774:	00403021 	move	a2,v0
 3901778:	8fbc0020 	lw	gp,32(sp)
 390177c:	14400013 	bnez	v0,39017cc <nvt_boot_itron_bin_auto+0xec>
 3901780:	00409021 	move	s2,v0
 3901784:	8c022030 	lw	v0,8240(zero)
 3901788:	24172000 	li	s7,8192
 390178c:	24040002 	li	a0,2
 3901790:	24422000 	addiu	v0,v0,8192
 3901794:	8ee30000 	lw	v1,0(s7)
 3901798:	5060000d 	beqzl	v1,39017d0 <nvt_boot_itron_bin_auto+0xf0>
 390179c:	8f848044 	lw	a0,-32700(gp)
 39017a0:	8ee50004 	lw	a1,4(s7)
 39017a4:	50a40007 	beql	a1,a0,39017c4 <nvt_boot_itron_bin_auto+0xe4>
 39017a8:	26f30010 	addiu	s3,s7,16
 39017ac:	02e3b821 	addu	s7,s7,v1
 39017b0:	02e2182b 	sltu	v1,s7,v0
 39017b4:	5460fff8 	bnezl	v1,3901798 <nvt_boot_itron_bin_auto+0xb8>
 39017b8:	8ee30000 	lw	v1,0(s7)
 39017bc:	10000004 	b	39017d0 <nvt_boot_itron_bin_auto+0xf0>
 39017c0:	8f848044 	lw	a0,-32700(gp)
 39017c4:	16600008 	bnez	s3,39017e8 <nvt_boot_itron_bin_auto+0x108>
 39017c8:	8f8280cc 	lw	v0,-32564(gp)
 39017cc:	8f848044 	lw	a0,-32700(gp)
 39017d0:	2412ffff 	li	s2,-1
 39017d4:	8f998040 	lw	t9,-32704(gp)
 39017d8:	0320f809 	jalr	t9
 39017dc:	248445b4 	addiu	a0,a0,17844
 39017e0:	10000132 	b	3901cac <nvt_boot_itron_bin_auto+0x5cc>
 39017e4:	8fbf00ec 	lw	ra,236(sp)
 39017e8:	8c420078 	lw	v0,120(v0)
 39017ec:	30420002 	andi	v0,v0,0x2
 39017f0:	10400006 	beqz	v0,390180c <nvt_boot_itron_bin_auto+0x12c>
 39017f4:	8f998040 	lw	t9,-32704(gp)
 39017f8:	8f848044 	lw	a0,-32700(gp)
 39017fc:	0320f809 	jalr	t9
 3901800:	24844648 	addiu	a0,a0,17992
 3901804:	10000126 	b	3901ca0 <nvt_boot_itron_bin_auto+0x5c0>
 3901808:	00000000 	nop
 390180c:	8f848044 	lw	a0,-32700(gp)
 3901810:	0320f809 	jalr	t9
 3901814:	24844658 	addiu	a0,a0,18008
 3901818:	8fbc0020 	lw	gp,32(sp)
 390181c:	8f998064 	lw	t9,-32668(gp)
 3901820:	0320f809 	jalr	t9
 3901824:	00000000 	nop
 3901828:	1040000e 	beqz	v0,3901864 <nvt_boot_itron_bin_auto+0x184>
 390182c:	8fbc0020 	lw	gp,32(sp)
 3901830:	8f998024 	lw	t9,-32732(gp)
 3901834:	27391638 	addiu	t9,t9,5688
 3901838:	0320f809 	jalr	t9
 390183c:	00000000 	nop
 3901840:	8fbc0020 	lw	gp,32(sp)
 3901844:	8f998024 	lw	t9,-32732(gp)
 3901848:	27391408 	addiu	t9,t9,5128
 390184c:	0320f809 	jalr	t9
 3901850:	24040001 	li	a0,1
 3901854:	044100fa 	bgez	v0,3901c40 <nvt_boot_itron_bin_auto+0x560>
 3901858:	8fbc0020 	lw	gp,32(sp)
 390185c:	10000112 	b	3901ca8 <nvt_boot_itron_bin_auto+0x5c8>
 3901860:	00409021 	move	s2,v0
 3901864:	27a300b0 	addiu	v1,sp,176
 3901868:	8f9e8044 	lw	s8,-32700(gp)
 390186c:	8f9980dc 	lw	t9,-32548(gp)
 3901870:	27a500b0 	addiu	a1,sp,176
 3901874:	3c100290 	lui	s0,0x290
 3901878:	afa300c0 	sw	v1,192(sp)
 390187c:	27a300a8 	addiu	v1,sp,168
 3901880:	27c4466c 	addiu	a0,s8,18028
 3901884:	00603021 	move	a2,v1
 3901888:	afa300c4 	sw	v1,196(sp)
 390188c:	0320f809 	jalr	t9
 3901890:	36161000 	ori	s6,s0,0x1000
 3901894:	26061000 	addiu	a2,s0,4096
 3901898:	8fbc0020 	lw	gp,32(sp)
 390189c:	02202021 	move	a0,s1
 39018a0:	8fa200b0 	lw	v0,176(sp)
 39018a4:	8fa300b4 	lw	v1,180(sp)
 39018a8:	8f958044 	lw	s5,-32700(gp)
 39018ac:	8f99806c 	lw	t9,-32660(gp)
 39018b0:	afa20010 	sw	v0,16(sp)
 39018b4:	24020200 	li	v0,512
 39018b8:	26a54674 	addiu	a1,s5,18036
 39018bc:	afa30014 	sw	v1,20(sp)
 39018c0:	0320f809 	jalr	t9
 39018c4:	afa20018 	sw	v0,24(sp)
 39018c8:	02202821 	move	a1,s1
 39018cc:	8fbc0020 	lw	gp,32(sp)
 39018d0:	8f948044 	lw	s4,-32700(gp)
 39018d4:	8f998040 	lw	t9,-32704(gp)
 39018d8:	0320f809 	jalr	t9
 39018dc:	26844348 	addiu	a0,s4,17224
 39018e0:	00002821 	move	a1,zero
 39018e4:	8fbc0020 	lw	gp,32(sp)
 39018e8:	8f9980a0 	lw	t9,-32608(gp)
 39018ec:	0320f809 	jalr	t9
 39018f0:	02202021 	move	a0,s1
 39018f4:	3c02314c 	lui	v0,0x314c
 39018f8:	8ec40000 	lw	a0,0(s6)
 39018fc:	24424342 	addiu	v0,v0,17218
 3901900:	14820079 	bne	a0,v0,3901ae8 <nvt_boot_itron_bin_auto+0x408>
 3901904:	8fbc0020 	lw	gp,32(sp)
 3901908:	8f848044 	lw	a0,-32700(gp)
 390190c:	8f998040 	lw	t9,-32704(gp)
 3901910:	0320f809 	jalr	t9
 3901914:	24844690 	addiu	a0,a0,18064
 3901918:	3c080010 	lui	t0,0x10
 390191c:	8ec70008 	lw	a3,8(s6)
 3901920:	26041001 	addiu	a0,s0,4097
 3901924:	8ed3000c 	lw	s3,12(s6)
 3901928:	25171000 	addiu	s7,t0,4096
 390192c:	8fbc0020 	lw	gp,32(sp)
 3901930:	7c0738a0 	wsbh	a3,a3
 3901934:	7c1398a0 	wsbh	s3,s3
 3901938:	00273c02 	ror	a3,a3,0x10
 390193c:	00f71021 	addu	v0,a3,s7
 3901940:	0044102b 	sltu	v0,v0,a0
 3901944:	14400015 	bnez	v0,390199c <nvt_boot_itron_bin_auto+0x2bc>
 3901948:	00339c02 	ror	s3,s3,0x10
 390194c:	8f908044 	lw	s0,-32700(gp)
 3901950:	02e03021 	move	a2,s7
 3901954:	8f918044 	lw	s1,-32700(gp)
 3901958:	8f848044 	lw	a0,-32700(gp)
 390195c:	261040ec 	addiu	s0,s0,16620
 3901960:	8f998040 	lw	t9,-32704(gp)
 3901964:	26254108 	addiu	a1,s1,16648
 3901968:	afb60010 	sw	s6,16(sp)
 390196c:	248446a4 	addiu	a0,a0,18084
 3901970:	0320f809 	jalr	t9
 3901974:	afb00014 	sw	s0,20(sp)
 3901978:	26254108 	addiu	a1,s1,16648
 390197c:	8fbc0020 	lw	gp,32(sp)
 3901980:	02003021 	move	a2,s0
 3901984:	8f848044 	lw	a0,-32700(gp)
 3901988:	8f998040 	lw	t9,-32704(gp)
 390198c:	0320f809 	jalr	t9
 3901990:	24844728 	addiu	a0,a0,18216
 3901994:	1000ffff 	b	3901994 <nvt_boot_itron_bin_auto+0x2b4>
 3901998:	00000000 	nop
 390199c:	8f9980dc 	lw	t9,-32548(gp)
 39019a0:	27c4466c 	addiu	a0,s8,18028
 39019a4:	27a500b0 	addiu	a1,sp,176
 39019a8:	0320f809 	jalr	t9
 39019ac:	27a600a8 	addiu	a2,sp,168
 39019b0:	26620010 	addiu	v0,s3,16
 39019b4:	8fbc0020 	lw	gp,32(sp)
 39019b8:	02c03021 	move	a2,s6
 39019bc:	8fa500b4 	lw	a1,180(sp)
 39019c0:	8fa400b0 	lw	a0,176(sp)
 39019c4:	afa20018 	sw	v0,24(sp)
 39019c8:	8f99806c 	lw	t9,-32660(gp)
 39019cc:	afa50014 	sw	a1,20(sp)
 39019d0:	26a54674 	addiu	a1,s5,18036
 39019d4:	afa40010 	sw	a0,16(sp)
 39019d8:	0320f809 	jalr	t9
 39019dc:	02202021 	move	a0,s1
 39019e0:	26844348 	addiu	a0,s4,17224
 39019e4:	8fbc0020 	lw	gp,32(sp)
 39019e8:	8f998040 	lw	t9,-32704(gp)
 39019ec:	0320f809 	jalr	t9
 39019f0:	02202821 	move	a1,s1
 39019f4:	00002821 	move	a1,zero
 39019f8:	8fbc0020 	lw	gp,32(sp)
 39019fc:	8f9980a0 	lw	t9,-32608(gp)
 3901a00:	0320f809 	jalr	t9
 3901a04:	02202021 	move	a0,s1
 3901a08:	2404000b 	li	a0,11
 3901a0c:	8ec20004 	lw	v0,4(s6)
 3901a10:	7c0210a0 	wsbh	v0,v0
 3901a14:	00221402 	ror	v0,v0,0x10
 3901a18:	304200ff 	andi	v0,v0,0xff
 3901a1c:	14440025 	bne	v0,a0,3901ab4 <nvt_boot_itron_bin_auto+0x3d4>
 3901a20:	8fbc0020 	lw	gp,32(sp)
 3901a24:	8ec20008 	lw	v0,8(s6)
 3901a28:	26101010 	addiu	s0,s0,4112
 3901a2c:	8f848044 	lw	a0,-32700(gp)
 3901a30:	8f998040 	lw	t9,-32704(gp)
 3901a34:	7c0210a0 	wsbh	v0,v0
 3901a38:	8ed1000c 	lw	s1,12(s6)
 3901a3c:	24844744 	addiu	a0,a0,18244
 3901a40:	00221402 	ror	v0,v0,0x10
 3901a44:	7c1188a0 	wsbh	s1,s1
 3901a48:	afa200b8 	sw	v0,184(sp)
 3901a4c:	0320f809 	jalr	t9
 3901a50:	00318c02 	ror	s1,s1,0x10
 3901a54:	02702821 	addu	a1,s3,s0
 3901a58:	8fbc0020 	lw	gp,32(sp)
 3901a5c:	8f99804c 	lw	t9,-32692(gp)
 3901a60:	0320f809 	jalr	t9
 3901a64:	02c02021 	move	a0,s6
 3901a68:	27a500b8 	addiu	a1,sp,184
 3901a6c:	8fbc0020 	lw	gp,32(sp)
 3901a70:	02e02021 	move	a0,s7
 3901a74:	02003021 	move	a2,s0
 3901a78:	8f9980b0 	lw	t9,-32592(gp)
 3901a7c:	0320f809 	jalr	t9
 3901a80:	02203821 	move	a3,s1
 3901a84:	10400006 	beqz	v0,3901aa0 <nvt_boot_itron_bin_auto+0x3c0>
 3901a88:	8fbc0020 	lw	gp,32(sp)
 3901a8c:	8f848044 	lw	a0,-32700(gp)
 3901a90:	8f998040 	lw	t9,-32704(gp)
 3901a94:	0320f809 	jalr	t9
 3901a98:	24844400 	addiu	a0,a0,17408
 3901a9c:	8fbc0020 	lw	gp,32(sp)
 3901aa0:	3c040010 	lui	a0,0x10
 3901aa4:	8fa500b8 	lw	a1,184(sp)
 3901aa8:	24841000 	addiu	a0,a0,4096
 3901aac:	10000060 	b	3901c30 <nvt_boot_itron_bin_auto+0x550>
 3901ab0:	00a42821 	addu	a1,a1,a0
 3901ab4:	8f8280b8 	lw	v0,-32584(gp)
 3901ab8:	26051010 	addiu	a1,s0,4112
 3901abc:	02652821 	addu	a1,s3,a1
 3901ac0:	8c420000 	lw	v0,0(v0)
 3901ac4:	ac560000 	sw	s6,0(v0)
 3901ac8:	8f8280bc 	lw	v0,-32580(gp)
 3901acc:	8c440000 	lw	a0,0(v0)
 3901ad0:	8ec2000c 	lw	v0,12(s6)
 3901ad4:	7c0210a0 	wsbh	v0,v0
 3901ad8:	00221402 	ror	v0,v0,0x10
 3901adc:	ac820000 	sw	v0,0(a0)
 3901ae0:	10000053 	b	3901c30 <nvt_boot_itron_bin_auto+0x550>
 3901ae4:	02c02021 	move	a0,s6
 3901ae8:	8ee200a0 	lw	v0,160(s7)
 3901aec:	26f40190 	addiu	s4,s7,400
 3901af0:	8fa400b0 	lw	a0,176(sp)
 3901af4:	8fa500b4 	lw	a1,180(sp)
 3901af8:	30420001 	andi	v0,v0,0x1
 3901afc:	8f99806c 	lw	t9,-32660(gp)
 3901b00:	1040002f 	beqz	v0,3901bc0 <nvt_boot_itron_bin_auto+0x4e0>
 3901b04:	8f958044 	lw	s5,-32700(gp)
 3901b08:	3c160010 	lui	s6,0x10
 3901b0c:	afa50014 	sw	a1,20(sp)
 3901b10:	3c020001 	lui	v0,0x1
 3901b14:	afa40010 	sw	a0,16(sp)
 3901b18:	26c61000 	addiu	a2,s6,4096
 3901b1c:	26a54760 	addiu	a1,s5,18272
 3901b20:	02202021 	move	a0,s1
 3901b24:	0320f809 	jalr	t9
 3901b28:	afa20018 	sw	v0,24(sp)
 3901b2c:	00002821 	move	a1,zero
 3901b30:	8fbc0020 	lw	gp,32(sp)
 3901b34:	8f9980a0 	lw	t9,-32608(gp)
 3901b38:	0320f809 	jalr	t9
 3901b3c:	02202021 	move	a0,s1
 3901b40:	3c060001 	lui	a2,0x1
 3901b44:	8fbc0020 	lw	gp,32(sp)
 3901b48:	8ed0130c 	lw	s0,4876(s6)
 3901b4c:	8f848044 	lw	a0,-32700(gp)
 3901b50:	02002821 	move	a1,s0
 3901b54:	8f998040 	lw	t9,-32704(gp)
 3901b58:	0320f809 	jalr	t9
 3901b5c:	2484477c 	addiu	a0,a0,18300
 3901b60:	3402ffff 	li	v0,0xffff
 3901b64:	8fbc0020 	lw	gp,32(sp)
 3901b68:	02028021 	addu	s0,s0,v0
 3901b6c:	3c02ffff 	lui	v0,0xffff
 3901b70:	8f848044 	lw	a0,-32700(gp)
 3901b74:	02028024 	and	s0,s0,v0
 3901b78:	8f998040 	lw	t9,-32704(gp)
 3901b7c:	02002821 	move	a1,s0
 3901b80:	0320f809 	jalr	t9
 3901b84:	248447a0 	addiu	a0,a0,18336
 3901b88:	26a54760 	addiu	a1,s5,18272
 3901b8c:	8fbc0020 	lw	gp,32(sp)
 3901b90:	02202021 	move	a0,s1
 3901b94:	8fa200b0 	lw	v0,176(sp)
 3901b98:	36c61000 	ori	a2,s6,0x1000
 3901b9c:	8fa300b4 	lw	v1,180(sp)
 3901ba0:	afb00018 	sw	s0,24(sp)
 3901ba4:	8f99806c 	lw	t9,-32660(gp)
 3901ba8:	afa20010 	sw	v0,16(sp)
 3901bac:	0320f809 	jalr	t9
 3901bb0:	afa30014 	sw	v1,20(sp)
 3901bb4:	8fbc0020 	lw	gp,32(sp)
 3901bb8:	10000010 	b	3901bfc <nvt_boot_itron_bin_auto+0x51c>
 3901bbc:	aef000a8 	sw	s0,168(s7)
 3901bc0:	8ed00068 	lw	s0,104(s6)
 3901bc4:	3c060010 	lui	a2,0x10
 3901bc8:	afa50014 	sw	a1,20(sp)
 3901bcc:	26a54760 	addiu	a1,s5,18272
 3901bd0:	24c61000 	addiu	a2,a2,4096
 3901bd4:	afa40010 	sw	a0,16(sp)
 3901bd8:	2602001f 	addiu	v0,s0,31
 3901bdc:	2410ffe0 	li	s0,-32
 3901be0:	02202021 	move	a0,s1
 3901be4:	00508024 	and	s0,v0,s0
 3901be8:	0320f809 	jalr	t9
 3901bec:	afb00018 	sw	s0,24(sp)
 3901bf0:	8ec20068 	lw	v0,104(s6)
 3901bf4:	8fbc0020 	lw	gp,32(sp)
 3901bf8:	aee200a8 	sw	v0,168(s7)
 3901bfc:	8f99804c 	lw	t9,-32692(gp)
 3901c00:	02602021 	move	a0,s3
 3901c04:	0320f809 	jalr	t9
 3901c08:	02802821 	move	a1,s4
 3901c0c:	00002821 	move	a1,zero
 3901c10:	8fbc0020 	lw	gp,32(sp)
 3901c14:	8f9980a0 	lw	t9,-32608(gp)
 3901c18:	0320f809 	jalr	t9
 3901c1c:	02202021 	move	a0,s1
 3901c20:	3c040010 	lui	a0,0x10
 3901c24:	8fbc0020 	lw	gp,32(sp)
 3901c28:	24841000 	addiu	a0,a0,4096
 3901c2c:	02042821 	addu	a1,s0,a0
 3901c30:	8f99804c 	lw	t9,-32692(gp)
 3901c34:	0320f809 	jalr	t9
 3901c38:	00000000 	nop
 3901c3c:	8fbc0020 	lw	gp,32(sp)
 3901c40:	8f848044 	lw	a0,-32700(gp)
 3901c44:	8f998040 	lw	t9,-32704(gp)
 3901c48:	0320f809 	jalr	t9
 3901c4c:	248447bc 	addiu	a0,a0,18364
 3901c50:	8fbc0020 	lw	gp,32(sp)
 3901c54:	8f8280e0 	lw	v0,-32544(gp)
 3901c58:	8c430000 	lw	v1,0(v0)
 3901c5c:	8c620000 	lw	v0,0(v1)
 3901c60:	54400012 	bnezl	v0,3901cac <nvt_boot_itron_bin_auto+0x5cc>
 3901c64:	8fbf00ec 	lw	ra,236(sp)
 3901c68:	3c020010 	lui	v0,0x10
 3901c6c:	8f99804c 	lw	t9,-32692(gp)
 3901c70:	24421000 	addiu	v0,v0,4096
 3901c74:	ac620000 	sw	v0,0(v1)
 3901c78:	3c03ffff 	lui	v1,0xffff
 3901c7c:	8f82803c 	lw	v0,-32708(gp)
 3901c80:	8c440000 	lw	a0,0(v0)
 3901c84:	24850010 	addiu	a1,a0,16
 3901c88:	8c820000 	lw	v0,0(a0)
 3901c8c:	00431024 	and	v0,v0,v1
 3901c90:	34420100 	ori	v0,v0,0x100
 3901c94:	ac820000 	sw	v0,0(a0)
 3901c98:	0320f809 	jalr	t9
 3901c9c:	00000000 	nop
 3901ca0:	10000002 	b	3901cac <nvt_boot_itron_bin_auto+0x5cc>
 3901ca4:	8fbf00ec 	lw	ra,236(sp)
 3901ca8:	8fbf00ec 	lw	ra,236(sp)
 3901cac:	02401021 	move	v0,s2
 3901cb0:	8fbe00e8 	lw	s8,232(sp)
 3901cb4:	8fb700e4 	lw	s7,228(sp)
 3901cb8:	8fb600e0 	lw	s6,224(sp)
 3901cbc:	8fb500dc 	lw	s5,220(sp)
 3901cc0:	8fb400d8 	lw	s4,216(sp)
 3901cc4:	8fb300d4 	lw	s3,212(sp)
 3901cc8:	8fb200d0 	lw	s2,208(sp)
 3901ccc:	8fb100cc 	lw	s1,204(sp)
 3901cd0:	8fb000c8 	lw	s0,200(sp)
 3901cd4:	03e00008 	jr	ra
 3901cd8:	27bd00f0 	addiu	sp,sp,240

03901cdc <do_nvt_booti_cmd>:
 3901cdc:	3c1c0004 	lui	gp,0x4
 3901ce0:	279c4c24 	addiu	gp,gp,19492
 3901ce4:	0399e021 	addu	gp,gp,t9
 3901ce8:	27bdffe0 	addiu	sp,sp,-32
 3901cec:	8f998084 	lw	t9,-32636(gp)
 3901cf0:	afbf001c 	sw	ra,28(sp)
 3901cf4:	afbc0010 	sw	gp,16(sp)
 3901cf8:	afb00018 	sw	s0,24(sp)
 3901cfc:	0320f809 	jalr	t9
 3901d00:	00000000 	nop
 3901d04:	8fbc0010 	lw	gp,16(sp)
 3901d08:	00408021 	move	s0,v0
 3901d0c:	8f848044 	lw	a0,-32700(gp)
 3901d10:	8f998040 	lw	t9,-32704(gp)
 3901d14:	0320f809 	jalr	t9
 3901d18:	248447d4 	addiu	a0,a0,18388
 3901d1c:	8fbc0010 	lw	gp,16(sp)
 3901d20:	8f998024 	lw	t9,-32732(gp)
 3901d24:	273916e0 	addiu	t9,t9,5856
 3901d28:	0320f809 	jalr	t9
 3901d2c:	00000000 	nop
 3901d30:	24030002 	li	v1,2
 3901d34:	16030003 	bne	s0,v1,3901d44 <do_nvt_booti_cmd+0x68>
 3901d38:	8fbf001c 	lw	ra,28(sp)
 3901d3c:	1000ffff 	b	3901d3c <do_nvt_booti_cmd+0x60>
 3901d40:	00000000 	nop
 3901d44:	00001021 	move	v0,zero
 3901d48:	8fb00018 	lw	s0,24(sp)
 3901d4c:	03e00008 	jr	ra
 3901d50:	27bd0020 	addiu	sp,sp,32

03901d54 <do_nvt_bootd_cmd>:
 3901d54:	3c1c0004 	lui	gp,0x4
 3901d58:	279c4bac 	addiu	gp,gp,19372
 3901d5c:	0399e021 	addu	gp,gp,t9
 3901d60:	8f848044 	lw	a0,-32700(gp)
 3901d64:	27bdffe0 	addiu	sp,sp,-32
 3901d68:	8f998040 	lw	t9,-32704(gp)
 3901d6c:	afbf001c 	sw	ra,28(sp)
 3901d70:	afbc0010 	sw	gp,16(sp)
 3901d74:	0320f809 	jalr	t9
 3901d78:	248447ec 	addiu	a0,a0,18412
 3901d7c:	8fbc0010 	lw	gp,16(sp)
 3901d80:	8f848044 	lw	a0,-32700(gp)
 3901d84:	8f998040 	lw	t9,-32704(gp)
 3901d88:	0320f809 	jalr	t9
 3901d8c:	24844800 	addiu	a0,a0,18432
 3901d90:	00001021 	move	v0,zero
 3901d94:	8fbf001c 	lw	ra,28(sp)
 3901d98:	03e00008 	jr	ra
 3901d9c:	27bd0020 	addiu	sp,sp,32

03901da0 <parsing_sdio_driving>:
 3901da0:	3c1c0004 	lui	gp,0x4
 3901da4:	279c4b60 	addiu	gp,gp,19296
 3901da8:	0399e021 	addu	gp,gp,t9
 3901dac:	2402000f 	li	v0,15
 3901db0:	8f8380e4 	lw	v1,-32540(gp)
 3901db4:	8f8480e8 	lw	a0,-32536(gp)
 3901db8:	ac620000 	sw	v0,0(v1)
 3901dbc:	8f8380ec 	lw	v1,-32532(gp)
 3901dc0:	ac620000 	sw	v0,0(v1)
 3901dc4:	24030014 	li	v1,20
 3901dc8:	ac830000 	sw	v1,0(a0)
 3901dcc:	8f8480f0 	lw	a0,-32528(gp)
 3901dd0:	ac820000 	sw	v0,0(a0)
 3901dd4:	8f8480f4 	lw	a0,-32524(gp)
 3901dd8:	ac820000 	sw	v0,0(a0)
 3901ddc:	8f8280f8 	lw	v0,-32520(gp)
 3901de0:	8f8480fc 	lw	a0,-32516(gp)
 3901de4:	ac430000 	sw	v1,0(v0)
 3901de8:	24020019 	li	v0,25
 3901dec:	8f838100 	lw	v1,-32512(gp)
 3901df0:	ac620000 	sw	v0,0(v1)
 3901df4:	8f838104 	lw	v1,-32508(gp)
 3901df8:	ac620000 	sw	v0,0(v1)
 3901dfc:	2403001e 	li	v1,30
 3901e00:	ac830000 	sw	v1,0(a0)
 3901e04:	8f848108 	lw	a0,-32504(gp)
 3901e08:	ac820000 	sw	v0,0(a0)
 3901e0c:	8f84802c 	lw	a0,-32724(gp)
 3901e10:	ac820000 	sw	v0,0(a0)
 3901e14:	8f82810c 	lw	v0,-32500(gp)
 3901e18:	03e00008 	jr	ra
 3901e1c:	ac430000 	sw	v1,0(v0)

03901e20 <do_nvt_boot_cmd>:
 3901e20:	3c1c0004 	lui	gp,0x4
 3901e24:	279c4ae0 	addiu	gp,gp,19168
 3901e28:	0399e021 	addu	gp,gp,t9
 3901e2c:	27bdf670 	addiu	sp,sp,-2448
 3901e30:	8f998038 	lw	t9,-32712(gp)
 3901e34:	00002821 	move	a1,zero
 3901e38:	afb30974 	sw	s3,2420(sp)
 3901e3c:	27b30440 	addiu	s3,sp,1088
 3901e40:	24060400 	li	a2,1024
 3901e44:	afbf098c 	sw	ra,2444(sp)
 3901e48:	afbc0038 	sw	gp,56(sp)
 3901e4c:	02602021 	move	a0,s3
 3901e50:	afb20970 	sw	s2,2416(sp)
 3901e54:	27b20040 	addiu	s2,sp,64
 3901e58:	afb1096c 	sw	s1,2412(sp)
 3901e5c:	afb00968 	sw	s0,2408(sp)
 3901e60:	afbe0988 	sw	s8,2440(sp)
 3901e64:	afb70984 	sw	s7,2436(sp)
 3901e68:	afb60980 	sw	s6,2432(sp)
 3901e6c:	afb5097c 	sw	s5,2428(sp)
 3901e70:	0320f809 	jalr	t9
 3901e74:	afb40978 	sw	s4,2424(sp)
 3901e78:	00002821 	move	a1,zero
 3901e7c:	8fbc0038 	lw	gp,56(sp)
 3901e80:	24060400 	li	a2,1024
 3901e84:	8f998038 	lw	t9,-32712(gp)
 3901e88:	0320f809 	jalr	t9
 3901e8c:	02402021 	move	a0,s2
 3901e90:	8fbc0038 	lw	gp,56(sp)
 3901e94:	8f918044 	lw	s1,-32700(gp)
 3901e98:	8f998068 	lw	t9,-32664(gp)
 3901e9c:	0320f809 	jalr	t9
 3901ea0:	262441a4 	addiu	a0,s1,16804
 3901ea4:	02402021 	move	a0,s2
 3901ea8:	8fbc0038 	lw	gp,56(sp)
 3901eac:	00403021 	move	a2,v0
 3901eb0:	8f858044 	lw	a1,-32700(gp)
 3901eb4:	8f99806c 	lw	t9,-32660(gp)
 3901eb8:	0320f809 	jalr	t9
 3901ebc:	24a541b0 	addiu	a1,a1,16816
 3901ec0:	02402821 	move	a1,s2
 3901ec4:	8fbc0038 	lw	gp,56(sp)
 3901ec8:	8f998070 	lw	t9,-32656(gp)
 3901ecc:	0320f809 	jalr	t9
 3901ed0:	02602021 	move	a0,s3
 3901ed4:	8fbc0038 	lw	gp,56(sp)
 3901ed8:	8f998084 	lw	t9,-32636(gp)
 3901edc:	0320f809 	jalr	t9
 3901ee0:	00000000 	nop
 3901ee4:	8fbc0038 	lw	gp,56(sp)
 3901ee8:	00408021 	move	s0,v0
 3901eec:	8f848044 	lw	a0,-32700(gp)
 3901ef0:	8f998040 	lw	t9,-32704(gp)
 3901ef4:	0320f809 	jalr	t9
 3901ef8:	2484480c 	addiu	a0,a0,18444
 3901efc:	8fbc0038 	lw	gp,56(sp)
 3901f00:	8f848044 	lw	a0,-32700(gp)
 3901f04:	8f998040 	lw	t9,-32704(gp)
 3901f08:	0320f809 	jalr	t9
 3901f0c:	24844800 	addiu	a0,a0,18432
 3901f10:	8fbc0038 	lw	gp,56(sp)
 3901f14:	8f998024 	lw	t9,-32732(gp)
 3901f18:	273916e0 	addiu	t9,t9,5856
 3901f1c:	0320f809 	jalr	t9
 3901f20:	00000000 	nop
 3901f24:	24020002 	li	v0,2
 3901f28:	16020003 	bne	s0,v0,3901f38 <do_nvt_boot_cmd+0x118>
 3901f2c:	8fbc0038 	lw	gp,56(sp)
 3901f30:	1000ffff 	b	3901f30 <do_nvt_boot_cmd+0x110>
 3901f34:	00000000 	nop
 3901f38:	27b10840 	addiu	s1,sp,2112
 3901f3c:	8f998038 	lw	t9,-32712(gp)
 3901f40:	24020003 	li	v0,3
 3901f44:	02202021 	move	a0,s1
 3901f48:	00002821 	move	a1,zero
 3901f4c:	1602013b 	bne	s0,v0,390243c <do_nvt_boot_cmd+0x61c>
 3901f50:	24060100 	li	a2,256
 3901f54:	0320f809 	jalr	t9
 3901f58:	00000000 	nop
 3901f5c:	8fbc0038 	lw	gp,56(sp)
 3901f60:	8f908044 	lw	s0,-32700(gp)
 3901f64:	8f9980a4 	lw	t9,-32604(gp)
 3901f68:	0320f809 	jalr	t9
 3901f6c:	26044358 	addiu	a0,s0,17240
 3901f70:	26054358 	addiu	a1,s0,17240
 3901f74:	8fbc0038 	lw	gp,56(sp)
 3901f78:	24042010 	li	a0,8208
 3901f7c:	00403021 	move	a2,v0
 3901f80:	8f9980a8 	lw	t9,-32600(gp)
 3901f84:	0320f809 	jalr	t9
 3901f88:	00008021 	move	s0,zero
 3901f8c:	14400010 	bnez	v0,3901fd0 <do_nvt_boot_cmd+0x1b0>
 3901f90:	8fbc0038 	lw	gp,56(sp)
 3901f94:	8c022030 	lw	v0,8240(zero)
 3901f98:	24102000 	li	s0,8192
 3901f9c:	24040007 	li	a0,7
 3901fa0:	24422000 	addiu	v0,v0,8192
 3901fa4:	8e030000 	lw	v1,0(s0)
 3901fa8:	50600009 	beqzl	v1,3901fd0 <do_nvt_boot_cmd+0x1b0>
 3901fac:	00008021 	move	s0,zero
 3901fb0:	8e050004 	lw	a1,4(s0)
 3901fb4:	50a40006 	beql	a1,a0,3901fd0 <do_nvt_boot_cmd+0x1b0>
 3901fb8:	26100010 	addiu	s0,s0,16
 3901fbc:	02038021 	addu	s0,s0,v1
 3901fc0:	0202182b 	sltu	v1,s0,v0
 3901fc4:	5460fff8 	bnezl	v1,3901fa8 <do_nvt_boot_cmd+0x188>
 3901fc8:	8e030000 	lw	v1,0(s0)
 3901fcc:	00008021 	move	s0,zero
 3901fd0:	00001021 	move	v0,zero
 3901fd4:	8f998064 	lw	t9,-32668(gp)
 3901fd8:	00001821 	move	v1,zero
 3901fdc:	afa20948 	sw	v0,2376(sp)
 3901fe0:	afa3094c 	sw	v1,2380(sp)
 3901fe4:	afa20940 	sw	v0,2368(sp)
 3901fe8:	0320f809 	jalr	t9
 3901fec:	afa30944 	sw	v1,2372(sp)
 3901ff0:	1040000e 	beqz	v0,390202c <do_nvt_boot_cmd+0x20c>
 3901ff4:	8fbc0038 	lw	gp,56(sp)
 3901ff8:	8f998024 	lw	t9,-32732(gp)
 3901ffc:	27391638 	addiu	t9,t9,5688
 3902000:	0320f809 	jalr	t9
 3902004:	00000000 	nop
 3902008:	8fbc0038 	lw	gp,56(sp)
 390200c:	8f998024 	lw	t9,-32732(gp)
 3902010:	27391408 	addiu	t9,t9,5128
 3902014:	0320f809 	jalr	t9
 3902018:	00002021 	move	a0,zero
 390201c:	044100e5 	bgez	v0,39023b4 <do_nvt_boot_cmd+0x594>
 3902020:	8fbc0038 	lw	gp,56(sp)
 3902024:	10000100 	b	3902428 <do_nvt_boot_cmd+0x608>
 3902028:	00408021 	move	s0,v0
 390202c:	8f9e8044 	lw	s8,-32700(gp)
 3902030:	27a30940 	addiu	v1,sp,2368
 3902034:	8f9980dc 	lw	t9,-32548(gp)
 3902038:	27b70948 	addiu	s7,sp,2376
 390203c:	00603021 	move	a2,v1
 3902040:	27c44824 	addiu	a0,s8,18468
 3902044:	afa30958 	sw	v1,2392(sp)
 3902048:	0320f809 	jalr	t9
 390204c:	02e02821 	move	a1,s7
 3902050:	02202021 	move	a0,s1
 3902054:	8fbc0038 	lw	gp,56(sp)
 3902058:	8fa3094c 	lw	v1,2380(sp)
 390205c:	8fa20948 	lw	v0,2376(sp)
 3902060:	8e060040 	lw	a2,64(s0)
 3902064:	8f858044 	lw	a1,-32700(gp)
 3902068:	8f99806c 	lw	t9,-32660(gp)
 390206c:	afa30014 	sw	v1,20(sp)
 3902070:	24a5482c 	addiu	a1,a1,18476
 3902074:	0320f809 	jalr	t9
 3902078:	afa20010 	sw	v0,16(sp)
 390207c:	02202821 	move	a1,s1
 3902080:	8fbc0038 	lw	gp,56(sp)
 3902084:	8f958044 	lw	s5,-32700(gp)
 3902088:	8f998040 	lw	t9,-32704(gp)
 390208c:	0320f809 	jalr	t9
 3902090:	26a44348 	addiu	a0,s5,17224
 3902094:	00002821 	move	a1,zero
 3902098:	8fbc0038 	lw	gp,56(sp)
 390209c:	8f9980a0 	lw	t9,-32608(gp)
 39020a0:	0320f809 	jalr	t9
 39020a4:	02202021 	move	a0,s1
 39020a8:	3c02314c 	lui	v0,0x314c
 39020ac:	8e160040 	lw	s6,64(s0)
 39020b0:	8fbc0038 	lw	gp,56(sp)
 39020b4:	24424342 	addiu	v0,v0,17218
 39020b8:	8ec40000 	lw	a0,0(s6)
 39020bc:	14820076 	bne	a0,v0,3902298 <do_nvt_boot_cmd+0x478>
 39020c0:	8f998040 	lw	t9,-32704(gp)
 39020c4:	8f848044 	lw	a0,-32700(gp)
 39020c8:	0320f809 	jalr	t9
 39020cc:	24844848 	addiu	a0,a0,18504
 39020d0:	8ec8000c 	lw	t0,12(s6)
 39020d4:	8ec70008 	lw	a3,8(s6)
 39020d8:	8e040044 	lw	a0,68(s0)
 39020dc:	7c0840a0 	wsbh	t0,t0
 39020e0:	8e060040 	lw	a2,64(s0)
 39020e4:	7c0738a0 	wsbh	a3,a3
 39020e8:	8fbc0038 	lw	gp,56(sp)
 39020ec:	00284402 	ror	t0,t0,0x10
 39020f0:	00273c02 	ror	a3,a3,0x10
 39020f4:	25080010 	addiu	t0,t0,16
 39020f8:	00861821 	addu	v1,a0,a2
 39020fc:	01071021 	addu	v0,t0,a3
 3902100:	0068a023 	subu	s4,v1,t0
 3902104:	0082102b 	sltu	v0,a0,v0
 3902108:	10400014 	beqz	v0,390215c <do_nvt_boot_cmd+0x33c>
 390210c:	afa3095c 	sw	v1,2396(sp)
 3902110:	8f908044 	lw	s0,-32700(gp)
 3902114:	8f918044 	lw	s1,-32700(gp)
 3902118:	8f848044 	lw	a0,-32700(gp)
 390211c:	261040ec 	addiu	s0,s0,16620
 3902120:	8f998040 	lw	t9,-32704(gp)
 3902124:	26254108 	addiu	a1,s1,16648
 3902128:	afb40010 	sw	s4,16(sp)
 390212c:	2484485c 	addiu	a0,a0,18524
 3902130:	0320f809 	jalr	t9
 3902134:	afb00014 	sw	s0,20(sp)
 3902138:	26254108 	addiu	a1,s1,16648
 390213c:	8fbc0038 	lw	gp,56(sp)
 3902140:	02003021 	move	a2,s0
 3902144:	8f848044 	lw	a0,-32700(gp)
 3902148:	8f998040 	lw	t9,-32704(gp)
 390214c:	0320f809 	jalr	t9
 3902150:	24844728 	addiu	a0,a0,18216
 3902154:	1000ffff 	b	3902154 <do_nvt_boot_cmd+0x334>
 3902158:	00000000 	nop
 390215c:	8f9980dc 	lw	t9,-32548(gp)
 3902160:	27c44824 	addiu	a0,s8,18468
 3902164:	27a60940 	addiu	a2,sp,2368
 3902168:	afa80960 	sw	t0,2400(sp)
 390216c:	0320f809 	jalr	t9
 3902170:	02e02821 	move	a1,s7
 3902174:	02803021 	move	a2,s4
 3902178:	8fbc0038 	lw	gp,56(sp)
 390217c:	8fa5094c 	lw	a1,2380(sp)
 3902180:	8fa80960 	lw	t0,2400(sp)
 3902184:	8fa40948 	lw	a0,2376(sp)
 3902188:	8f99806c 	lw	t9,-32660(gp)
 390218c:	afa50014 	sw	a1,20(sp)
 3902190:	afa80018 	sw	t0,24(sp)
 3902194:	afa40010 	sw	a0,16(sp)
 3902198:	02202021 	move	a0,s1
 390219c:	8f858044 	lw	a1,-32700(gp)
 39021a0:	0320f809 	jalr	t9
 39021a4:	24a54674 	addiu	a1,a1,18036
 39021a8:	26a44348 	addiu	a0,s5,17224
 39021ac:	8fbc0038 	lw	gp,56(sp)
 39021b0:	02202821 	move	a1,s1
 39021b4:	8f998040 	lw	t9,-32704(gp)
 39021b8:	0320f809 	jalr	t9
 39021bc:	26950010 	addiu	s5,s4,16
 39021c0:	00002821 	move	a1,zero
 39021c4:	8fbc0038 	lw	gp,56(sp)
 39021c8:	8f9980a0 	lw	t9,-32608(gp)
 39021cc:	0320f809 	jalr	t9
 39021d0:	02202021 	move	a0,s1
 39021d4:	2404000b 	li	a0,11
 39021d8:	8ec20004 	lw	v0,4(s6)
 39021dc:	8fbc0038 	lw	gp,56(sp)
 39021e0:	7c0210a0 	wsbh	v0,v0
 39021e4:	00221402 	ror	v0,v0,0x10
 39021e8:	304200ff 	andi	v0,v0,0xff
 39021ec:	14440021 	bne	v0,a0,3902274 <do_nvt_boot_cmd+0x454>
 39021f0:	8ec6000c 	lw	a2,12(s6)
 39021f4:	8ec20008 	lw	v0,8(s6)
 39021f8:	7c0688a0 	wsbh	s1,a2
 39021fc:	8f848044 	lw	a0,-32700(gp)
 3902200:	8f998040 	lw	t9,-32704(gp)
 3902204:	00318c02 	ror	s1,s1,0x10
 3902208:	7c0210a0 	wsbh	v0,v0
 390220c:	248448e0 	addiu	a0,a0,18656
 3902210:	00221402 	ror	v0,v0,0x10
 3902214:	0320f809 	jalr	t9
 3902218:	afa20950 	sw	v0,2384(sp)
 390221c:	02802021 	move	a0,s4
 3902220:	8fbc0038 	lw	gp,56(sp)
 3902224:	8f99804c 	lw	t9,-32692(gp)
 3902228:	0320f809 	jalr	t9
 390222c:	8fa5095c 	lw	a1,2396(sp)
 3902230:	27a50950 	addiu	a1,sp,2384
 3902234:	8fbc0038 	lw	gp,56(sp)
 3902238:	02a03021 	move	a2,s5
 390223c:	8e040040 	lw	a0,64(s0)
 3902240:	8f9980b0 	lw	t9,-32592(gp)
 3902244:	0320f809 	jalr	t9
 3902248:	02203821 	move	a3,s1
 390224c:	10400006 	beqz	v0,3902268 <do_nvt_boot_cmd+0x448>
 3902250:	8fbc0038 	lw	gp,56(sp)
 3902254:	8f848044 	lw	a0,-32700(gp)
 3902258:	8f998040 	lw	t9,-32704(gp)
 390225c:	0320f809 	jalr	t9
 3902260:	24844400 	addiu	a0,a0,17408
 3902264:	8fbc0038 	lw	gp,56(sp)
 3902268:	8e040040 	lw	a0,64(s0)
 390226c:	1000002d 	b	3902324 <do_nvt_boot_cmd+0x504>
 3902270:	8fa50950 	lw	a1,2384(sp)
 3902274:	7c0630a0 	wsbh	a2,a2
 3902278:	8f9980b4 	lw	t9,-32588(gp)
 390227c:	8e050040 	lw	a1,64(s0)
 3902280:	02a02021 	move	a0,s5
 3902284:	0320f809 	jalr	t9
 3902288:	00263402 	ror	a2,a2,0x10
 390228c:	8fbc0038 	lw	gp,56(sp)
 3902290:	10000023 	b	3902320 <do_nvt_boot_cmd+0x500>
 3902294:	8e050044 	lw	a1,68(s0)
 3902298:	8f848044 	lw	a0,-32700(gp)
 390229c:	0320f809 	jalr	t9
 39022a0:	248448f8 	addiu	a0,a0,18680
 39022a4:	27c44824 	addiu	a0,s8,18468
 39022a8:	8fbc0038 	lw	gp,56(sp)
 39022ac:	27a60940 	addiu	a2,sp,2368
 39022b0:	8f9980dc 	lw	t9,-32548(gp)
 39022b4:	0320f809 	jalr	t9
 39022b8:	02e02821 	move	a1,s7
 39022bc:	02202021 	move	a0,s1
 39022c0:	8fa3094c 	lw	v1,2380(sp)
 39022c4:	8fa20948 	lw	v0,2376(sp)
 39022c8:	8fbc0038 	lw	gp,56(sp)
 39022cc:	8e060040 	lw	a2,64(s0)
 39022d0:	afa30014 	sw	v1,20(sp)
 39022d4:	afa20010 	sw	v0,16(sp)
 39022d8:	8f858044 	lw	a1,-32700(gp)
 39022dc:	8ec20468 	lw	v0,1128(s6)
 39022e0:	8f99806c 	lw	t9,-32660(gp)
 39022e4:	24a54674 	addiu	a1,a1,18036
 39022e8:	0320f809 	jalr	t9
 39022ec:	afa20018 	sw	v0,24(sp)
 39022f0:	26a44348 	addiu	a0,s5,17224
 39022f4:	8fbc0038 	lw	gp,56(sp)
 39022f8:	8f998040 	lw	t9,-32704(gp)
 39022fc:	0320f809 	jalr	t9
 3902300:	02202821 	move	a1,s1
 3902304:	00002821 	move	a1,zero
 3902308:	8fbc0038 	lw	gp,56(sp)
 390230c:	8f9980a0 	lw	t9,-32608(gp)
 3902310:	0320f809 	jalr	t9
 3902314:	02202021 	move	a0,s1
 3902318:	8fbc0038 	lw	gp,56(sp)
 390231c:	8ec50468 	lw	a1,1128(s6)
 3902320:	8e040040 	lw	a0,64(s0)
 3902324:	8f99804c 	lw	t9,-32692(gp)
 3902328:	0320f809 	jalr	t9
 390232c:	00852821 	addu	a1,a0,a1
 3902330:	24060008 	li	a2,8
 3902334:	8fbc0038 	lw	gp,56(sp)
 3902338:	8e110040 	lw	s1,64(s0)
 390233c:	8f858044 	lw	a1,-32700(gp)
 3902340:	262402f0 	addiu	a0,s1,752
 3902344:	8f998110 	lw	t9,-32496(gp)
 3902348:	0320f809 	jalr	t9
 390234c:	24a54910 	addiu	a1,a1,18704
 3902350:	14400037 	bnez	v0,3902430 <do_nvt_boot_cmd+0x610>
 3902354:	8fbc0038 	lw	gp,56(sp)
 3902358:	8e050040 	lw	a1,64(s0)
 390235c:	8e260400 	lw	a2,1024(s1)
 3902360:	50a60004 	beql	a1,a2,3902374 <do_nvt_boot_cmd+0x554>
 3902364:	8f998114 	lw	t9,-32492(gp)
 3902368:	8f848044 	lw	a0,-32700(gp)
 390236c:	1000000c 	b	39023a0 <do_nvt_boot_cmd+0x580>
 3902370:	2484491c 	addiu	a0,a0,18716
 3902374:	24050001 	li	a1,1
 3902378:	0320f809 	jalr	t9
 390237c:	26240304 	addiu	a0,s1,772
 3902380:	8e050040 	lw	a1,64(s0)
 3902384:	8e060044 	lw	a2,68(s0)
 3902388:	00452823 	subu	a1,v0,a1
 390238c:	00c5102b 	sltu	v0,a2,a1
 3902390:	10400008 	beqz	v0,39023b4 <do_nvt_boot_cmd+0x594>
 3902394:	8fbc0038 	lw	gp,56(sp)
 3902398:	8f848044 	lw	a0,-32700(gp)
 390239c:	24844950 	addiu	a0,a0,18768
 39023a0:	8f998040 	lw	t9,-32704(gp)
 39023a4:	0320f809 	jalr	t9
 39023a8:	2410ffff 	li	s0,-1
 39023ac:	10000021 	b	3902434 <do_nvt_boot_cmd+0x614>
 39023b0:	8fbc0038 	lw	gp,56(sp)
 39023b4:	8f828044 	lw	v0,-32700(gp)
 39023b8:	8f9980a4 	lw	t9,-32604(gp)
 39023bc:	0320f809 	jalr	t9
 39023c0:	24444358 	addiu	a0,v0,17240
 39023c4:	24042010 	li	a0,8208
 39023c8:	8fbc0038 	lw	gp,56(sp)
 39023cc:	00403021 	move	a2,v0
 39023d0:	8f838044 	lw	v1,-32700(gp)
 39023d4:	8f9980a8 	lw	t9,-32600(gp)
 39023d8:	0320f809 	jalr	t9
 39023dc:	24654358 	addiu	a1,v1,17240
 39023e0:	144000f2 	bnez	v0,39027ac <do_nvt_boot_cmd+0x98c>
 39023e4:	8fbc0038 	lw	gp,56(sp)
 39023e8:	8c032030 	lw	v1,8240(zero)
 39023ec:	24022000 	li	v0,8192
 39023f0:	24050007 	li	a1,7
 39023f4:	24632000 	addiu	v1,v1,8192
 39023f8:	8c440000 	lw	a0,0(v0)
 39023fc:	108000eb 	beqz	a0,39027ac <do_nvt_boot_cmd+0x98c>
 3902400:	00000000 	nop
 3902404:	8c460004 	lw	a2,4(v0)
 3902408:	50c5006c 	beql	a2,a1,39025bc <do_nvt_boot_cmd+0x79c>
 390240c:	8f848044 	lw	a0,-32700(gp)
 3902410:	00441021 	addu	v0,v0,a0
 3902414:	0043202b 	sltu	a0,v0,v1
 3902418:	5480fff8 	bnezl	a0,39023fc <do_nvt_boot_cmd+0x5dc>
 390241c:	8c440000 	lw	a0,0(v0)
 3902420:	100000e2 	b	39027ac <do_nvt_boot_cmd+0x98c>
 3902424:	00000000 	nop
 3902428:	1000005f 	b	39025a8 <do_nvt_boot_cmd+0x788>
 390242c:	8f848044 	lw	a0,-32700(gp)
 3902430:	2410ffff 	li	s0,-1
 3902434:	1000005c 	b	39025a8 <do_nvt_boot_cmd+0x788>
 3902438:	8f848044 	lw	a0,-32700(gp)
 390243c:	0320f809 	jalr	t9
 3902440:	00000000 	nop
 3902444:	00001021 	move	v0,zero
 3902448:	8fbc0038 	lw	gp,56(sp)
 390244c:	00001821 	move	v1,zero
 3902450:	afa20948 	sw	v0,2376(sp)
 3902454:	afa3094c 	sw	v1,2380(sp)
 3902458:	afa20940 	sw	v0,2368(sp)
 390245c:	8f998064 	lw	t9,-32668(gp)
 3902460:	0320f809 	jalr	t9
 3902464:	afa30944 	sw	v1,2372(sp)
 3902468:	1040000c 	beqz	v0,390249c <do_nvt_boot_cmd+0x67c>
 390246c:	8fbc0038 	lw	gp,56(sp)
 3902470:	8f998024 	lw	t9,-32732(gp)
 3902474:	27391638 	addiu	t9,t9,5688
 3902478:	0320f809 	jalr	t9
 390247c:	00000000 	nop
 3902480:	8fbc0038 	lw	gp,56(sp)
 3902484:	8f998024 	lw	t9,-32732(gp)
 3902488:	27391408 	addiu	t9,t9,5128
 390248c:	0320f809 	jalr	t9
 3902490:	00002021 	move	a0,zero
 3902494:	10000042 	b	39025a0 <do_nvt_boot_cmd+0x780>
 3902498:	8fbc0038 	lw	gp,56(sp)
 390249c:	8f9e8044 	lw	s8,-32700(gp)
 39024a0:	27b50948 	addiu	s5,sp,2376
 39024a4:	8f9980dc 	lw	t9,-32548(gp)
 39024a8:	27b40940 	addiu	s4,sp,2368
 39024ac:	02a02821 	move	a1,s5
 39024b0:	27c4498c 	addiu	a0,s8,18828
 39024b4:	0320f809 	jalr	t9
 39024b8:	02803021 	move	a2,s4
 39024bc:	3c060350 	lui	a2,0x350
 39024c0:	8fbc0038 	lw	gp,56(sp)
 39024c4:	02202021 	move	a0,s1
 39024c8:	8fa20948 	lw	v0,2376(sp)
 39024cc:	8fa3094c 	lw	v1,2380(sp)
 39024d0:	8f978044 	lw	s7,-32700(gp)
 39024d4:	8f99806c 	lw	t9,-32660(gp)
 39024d8:	afa20010 	sw	v0,16(sp)
 39024dc:	24020040 	li	v0,64
 39024e0:	26e54674 	addiu	a1,s7,18036
 39024e4:	afa30014 	sw	v1,20(sp)
 39024e8:	0320f809 	jalr	t9
 39024ec:	afa20018 	sw	v0,24(sp)
 39024f0:	02202821 	move	a1,s1
 39024f4:	8fbc0038 	lw	gp,56(sp)
 39024f8:	8f968044 	lw	s6,-32700(gp)
 39024fc:	8f998040 	lw	t9,-32704(gp)
 3902500:	0320f809 	jalr	t9
 3902504:	26c44348 	addiu	a0,s6,17224
 3902508:	00002821 	move	a1,zero
 390250c:	8fbc0038 	lw	gp,56(sp)
 3902510:	8f9980a0 	lw	t9,-32608(gp)
 3902514:	0320f809 	jalr	t9
 3902518:	02202021 	move	a0,s1
 390251c:	3c020350 	lui	v0,0x350
 3902520:	8fbc0038 	lw	gp,56(sp)
 3902524:	27c4498c 	addiu	a0,s8,18828
 3902528:	02a02821 	move	a1,s5
 390252c:	8c50000c 	lw	s0,12(v0)
 3902530:	02803021 	move	a2,s4
 3902534:	8f9980dc 	lw	t9,-32548(gp)
 3902538:	0320f809 	jalr	t9
 390253c:	7c1080a0 	wsbh	s0,s0
 3902540:	00308402 	ror	s0,s0,0x10
 3902544:	8fbc0038 	lw	gp,56(sp)
 3902548:	3c060350 	lui	a2,0x350
 390254c:	8fa3094c 	lw	v1,2380(sp)
 3902550:	26100040 	addiu	s0,s0,64
 3902554:	8fa20948 	lw	v0,2376(sp)
 3902558:	26e54674 	addiu	a1,s7,18036
 390255c:	02202021 	move	a0,s1
 3902560:	8f99806c 	lw	t9,-32660(gp)
 3902564:	afa30014 	sw	v1,20(sp)
 3902568:	afa20010 	sw	v0,16(sp)
 390256c:	0320f809 	jalr	t9
 3902570:	afb00018 	sw	s0,24(sp)
 3902574:	26c44348 	addiu	a0,s6,17224
 3902578:	8fbc0038 	lw	gp,56(sp)
 390257c:	8f998040 	lw	t9,-32704(gp)
 3902580:	0320f809 	jalr	t9
 3902584:	02202821 	move	a1,s1
 3902588:	00002821 	move	a1,zero
 390258c:	8fbc0038 	lw	gp,56(sp)
 3902590:	8f9980a0 	lw	t9,-32608(gp)
 3902594:	0320f809 	jalr	t9
 3902598:	02202021 	move	a0,s1
 390259c:	8fbc0038 	lw	gp,56(sp)
 39025a0:	1000000e 	b	39025dc <do_nvt_boot_cmd+0x7bc>
 39025a4:	8f858044 	lw	a1,-32700(gp)
 39025a8:	8f998040 	lw	t9,-32704(gp)
 39025ac:	0320f809 	jalr	t9
 39025b0:	24844994 	addiu	a0,a0,18836
 39025b4:	1000007f 	b	39027b4 <do_nvt_boot_cmd+0x994>
 39025b8:	8fbf098c 	lw	ra,2444(sp)
 39025bc:	8c500050 	lw	s0,80(v0)
 39025c0:	8f998040 	lw	t9,-32704(gp)
 39025c4:	24844a70 	addiu	a0,a0,19056
 39025c8:	0320f809 	jalr	t9
 39025cc:	02002821 	move	a1,s0
 39025d0:	8fbc0038 	lw	gp,56(sp)
 39025d4:	02000008 	jr	s0
 39025d8:	8f858044 	lw	a1,-32700(gp)
 39025dc:	24064000 	li	a2,16384
 39025e0:	8f99806c 	lw	t9,-32660(gp)
 39025e4:	02402021 	move	a0,s2
 39025e8:	00008021 	move	s0,zero
 39025ec:	0320f809 	jalr	t9
 39025f0:	24a549b0 	addiu	a1,a1,18864
 39025f4:	02602021 	move	a0,s3
 39025f8:	8fbc0038 	lw	gp,56(sp)
 39025fc:	8f998070 	lw	t9,-32656(gp)
 3902600:	0320f809 	jalr	t9
 3902604:	02402821 	move	a1,s2
 3902608:	02402021 	move	a0,s2
 390260c:	8fbc0038 	lw	gp,56(sp)
 3902610:	8f858044 	lw	a1,-32700(gp)
 3902614:	8f99806c 	lw	t9,-32660(gp)
 3902618:	0320f809 	jalr	t9
 390261c:	24a549c8 	addiu	a1,a1,18888
 3902620:	02602021 	move	a0,s3
 3902624:	8fbc0038 	lw	gp,56(sp)
 3902628:	8f998070 	lw	t9,-32656(gp)
 390262c:	0320f809 	jalr	t9
 3902630:	02402821 	move	a1,s2
 3902634:	34068000 	li	a2,0x8000
 3902638:	8fbc0038 	lw	gp,56(sp)
 390263c:	02402021 	move	a0,s2
 3902640:	8f858044 	lw	a1,-32700(gp)
 3902644:	8f99806c 	lw	t9,-32660(gp)
 3902648:	0320f809 	jalr	t9
 390264c:	24a549e8 	addiu	a1,a1,18920
 3902650:	02602021 	move	a0,s3
 3902654:	8fbc0038 	lw	gp,56(sp)
 3902658:	8f998070 	lw	t9,-32656(gp)
 390265c:	0320f809 	jalr	t9
 3902660:	02402821 	move	a1,s2
 3902664:	3c060070 	lui	a2,0x70
 3902668:	8fbc0038 	lw	gp,56(sp)
 390266c:	00003821 	move	a3,zero
 3902670:	02402021 	move	a0,s2
 3902674:	8f858044 	lw	a1,-32700(gp)
 3902678:	8f99806c 	lw	t9,-32660(gp)
 390267c:	0320f809 	jalr	t9
 3902680:	24a54a00 	addiu	a1,a1,18944
 3902684:	02602021 	move	a0,s3
 3902688:	8fbc0038 	lw	gp,56(sp)
 390268c:	8f998070 	lw	t9,-32656(gp)
 3902690:	0320f809 	jalr	t9
 3902694:	02402821 	move	a1,s2
 3902698:	8fbc0038 	lw	gp,56(sp)
 390269c:	8f998118 	lw	t9,-32488(gp)
 39026a0:	0320f809 	jalr	t9
 39026a4:	00000000 	nop
 39026a8:	02402021 	move	a0,s2
 39026ac:	8fbc0038 	lw	gp,56(sp)
 39026b0:	8f8280e8 	lw	v0,-32536(gp)
 39026b4:	8f858044 	lw	a1,-32700(gp)
 39026b8:	8f99806c 	lw	t9,-32660(gp)
 39026bc:	8c460000 	lw	a2,0(v0)
 39026c0:	24a54a10 	addiu	a1,a1,18960
 39026c4:	8f8280ec 	lw	v0,-32532(gp)
 39026c8:	8c470000 	lw	a3,0(v0)
 39026cc:	8f8280e4 	lw	v0,-32540(gp)
 39026d0:	8c420000 	lw	v0,0(v0)
 39026d4:	afa20010 	sw	v0,16(sp)
 39026d8:	8f8280f8 	lw	v0,-32520(gp)
 39026dc:	8c420000 	lw	v0,0(v0)
 39026e0:	afa20014 	sw	v0,20(sp)
 39026e4:	8f8280f4 	lw	v0,-32524(gp)
 39026e8:	8c420000 	lw	v0,0(v0)
 39026ec:	afa20018 	sw	v0,24(sp)
 39026f0:	8f8280f0 	lw	v0,-32528(gp)
 39026f4:	8c420000 	lw	v0,0(v0)
 39026f8:	afa2001c 	sw	v0,28(sp)
 39026fc:	8f8280fc 	lw	v0,-32516(gp)
 3902700:	8c420000 	lw	v0,0(v0)
 3902704:	afa20020 	sw	v0,32(sp)
 3902708:	8f828104 	lw	v0,-32508(gp)
 390270c:	8c420000 	lw	v0,0(v0)
 3902710:	afa20024 	sw	v0,36(sp)
 3902714:	8f828100 	lw	v0,-32512(gp)
 3902718:	8c420000 	lw	v0,0(v0)
 390271c:	afa20028 	sw	v0,40(sp)
 3902720:	8f82810c 	lw	v0,-32500(gp)
 3902724:	8c420000 	lw	v0,0(v0)
 3902728:	afa2002c 	sw	v0,44(sp)
 390272c:	8f82802c 	lw	v0,-32724(gp)
 3902730:	8c420000 	lw	v0,0(v0)
 3902734:	afa20030 	sw	v0,48(sp)
 3902738:	8f828108 	lw	v0,-32504(gp)
 390273c:	8c420000 	lw	v0,0(v0)
 3902740:	0320f809 	jalr	t9
 3902744:	afa20034 	sw	v0,52(sp)
 3902748:	02602021 	move	a0,s3
 390274c:	8fbc0038 	lw	gp,56(sp)
 3902750:	8f998070 	lw	t9,-32656(gp)
 3902754:	0320f809 	jalr	t9
 3902758:	02402821 	move	a1,s2
 390275c:	02602821 	move	a1,s3
 3902760:	8fbc0038 	lw	gp,56(sp)
 3902764:	8f838044 	lw	v1,-32700(gp)
 3902768:	8f998088 	lw	t9,-32632(gp)
 390276c:	0320f809 	jalr	t9
 3902770:	246441a4 	addiu	a0,v1,16804
 3902774:	02602821 	move	a1,s3
 3902778:	8fbc0038 	lw	gp,56(sp)
 390277c:	8f848044 	lw	a0,-32700(gp)
 3902780:	8f998040 	lw	t9,-32704(gp)
 3902784:	0320f809 	jalr	t9
 3902788:	24844a44 	addiu	a0,a0,19012
 390278c:	3c050350 	lui	a1,0x350
 3902790:	8fbc0038 	lw	gp,56(sp)
 3902794:	8f848044 	lw	a0,-32700(gp)
 3902798:	8f998040 	lw	t9,-32704(gp)
 390279c:	0320f809 	jalr	t9
 39027a0:	24844a54 	addiu	a0,a0,19028
 39027a4:	10000003 	b	39027b4 <do_nvt_boot_cmd+0x994>
 39027a8:	8fbf098c 	lw	ra,2444(sp)
 39027ac:	8c020040 	lw	v0,64(zero)
 39027b0:	00000034 	teq	zero,zero
 39027b4:	02001021 	move	v0,s0
 39027b8:	8fbe0988 	lw	s8,2440(sp)
 39027bc:	8fb70984 	lw	s7,2436(sp)
 39027c0:	8fb60980 	lw	s6,2432(sp)
 39027c4:	8fb5097c 	lw	s5,2428(sp)
 39027c8:	8fb40978 	lw	s4,2424(sp)
 39027cc:	8fb30974 	lw	s3,2420(sp)
 39027d0:	8fb20970 	lw	s2,2416(sp)
 39027d4:	8fb1096c 	lw	s1,2412(sp)
 39027d8:	8fb00968 	lw	s0,2408(sp)
 39027dc:	03e00008 	jr	ra
 39027e0:	27bd0990 	addiu	sp,sp,2448

039027e4 <nvt_flash_mtdpart_config>:
 39027e4:	3c1c0004 	lui	gp,0x4
 39027e8:	279c411c 	addiu	gp,gp,16668
 39027ec:	0399e021 	addu	gp,gp,t9
 39027f0:	27bdf7b0 	addiu	sp,sp,-2128
 39027f4:	afbc0018 	sw	gp,24(sp)
 39027f8:	afb20830 	sw	s2,2096(sp)
 39027fc:	00a09021 	move	s2,a1
 3902800:	afb1082c 	sw	s1,2092(sp)
 3902804:	00808821 	move	s1,a0
 3902808:	afbf084c 	sw	ra,2124(sp)
 390280c:	afbe0848 	sw	s8,2120(sp)
 3902810:	afb70844 	sw	s7,2116(sp)
 3902814:	afb60840 	sw	s6,2112(sp)
 3902818:	afb5083c 	sw	s5,2108(sp)
 390281c:	afb40838 	sw	s4,2104(sp)
 3902820:	afb30834 	sw	s3,2100(sp)
 3902824:	14a00025 	bnez	a1,39028bc <nvt_flash_mtdpart_config+0xd8>
 3902828:	afb00828 	sw	s0,2088(sp)
 390282c:	8f908044 	lw	s0,-32700(gp)
 3902830:	8f9980a4 	lw	t9,-32604(gp)
 3902834:	0320f809 	jalr	t9
 3902838:	26044358 	addiu	a0,s0,17240
 390283c:	24042010 	li	a0,8208
 3902840:	8fbc0018 	lw	gp,24(sp)
 3902844:	26054358 	addiu	a1,s0,17240
 3902848:	8f9980a8 	lw	t9,-32600(gp)
 390284c:	0320f809 	jalr	t9
 3902850:	00403021 	move	a2,v0
 3902854:	14400013 	bnez	v0,39028a4 <nvt_flash_mtdpart_config+0xc0>
 3902858:	8fbc0018 	lw	gp,24(sp)
 390285c:	8c022030 	lw	v0,8240(zero)
 3902860:	24052000 	li	a1,8192
 3902864:	24040005 	li	a0,5
 3902868:	24422000 	addiu	v0,v0,8192
 390286c:	8ca30000 	lw	v1,0(a1)
 3902870:	5060000d 	beqzl	v1,39028a8 <nvt_flash_mtdpart_config+0xc4>
 3902874:	8f848044 	lw	a0,-32700(gp)
 3902878:	8ca60004 	lw	a2,4(a1)
 390287c:	50c40007 	beql	a2,a0,390289c <nvt_flash_mtdpart_config+0xb8>
 3902880:	24b20010 	addiu	s2,a1,16
 3902884:	00a32821 	addu	a1,a1,v1
 3902888:	00a2182b 	sltu	v1,a1,v0
 390288c:	5460fff8 	bnezl	v1,3902870 <nvt_flash_mtdpart_config+0x8c>
 3902890:	8ca30000 	lw	v1,0(a1)
 3902894:	10000004 	b	39028a8 <nvt_flash_mtdpart_config+0xc4>
 3902898:	8f848044 	lw	a0,-32700(gp)
 390289c:	16400008 	bnez	s2,39028c0 <nvt_flash_mtdpart_config+0xdc>
 39028a0:	8f858044 	lw	a1,-32700(gp)
 39028a4:	8f848044 	lw	a0,-32700(gp)
 39028a8:	8f998040 	lw	t9,-32704(gp)
 39028ac:	0320f809 	jalr	t9
 39028b0:	24844a8c 	addiu	a0,a0,19084
 39028b4:	10000155 	b	3902e0c <nvt_flash_mtdpart_config+0x628>
 39028b8:	2402ffff 	li	v0,-1
 39028bc:	8f858044 	lw	a1,-32700(gp)
 39028c0:	27b30420 	addiu	s3,sp,1056
 39028c4:	8f99806c 	lw	t9,-32660(gp)
 39028c8:	02602021 	move	a0,s3
 39028cc:	0320f809 	jalr	t9
 39028d0:	24a54aa8 	addiu	a1,a1,19112
 39028d4:	02602821 	move	a1,s3
 39028d8:	8fbc0018 	lw	gp,24(sp)
 39028dc:	8f848044 	lw	a0,-32700(gp)
 39028e0:	8f998088 	lw	t9,-32632(gp)
 39028e4:	0320f809 	jalr	t9
 39028e8:	24844ab8 	addiu	a0,a0,19128
 39028ec:	8fbc0018 	lw	gp,24(sp)
 39028f0:	10400009 	beqz	v0,3902918 <nvt_flash_mtdpart_config+0x134>
 39028f4:	00408021 	move	s0,v0
 39028f8:	8f848044 	lw	a0,-32700(gp)
 39028fc:	8f858044 	lw	a1,-32700(gp)
 3902900:	8f998040 	lw	t9,-32704(gp)
 3902904:	24844ac0 	addiu	a0,a0,19136
 3902908:	0320f809 	jalr	t9
 390290c:	24a52da8 	addiu	a1,a1,11688
 3902910:	1000013e 	b	3902e0c <nvt_flash_mtdpart_config+0x628>
 3902914:	02001021 	move	v0,s0
 3902918:	8f908044 	lw	s0,-32700(gp)
 390291c:	02602021 	move	a0,s3
 3902920:	8f99806c 	lw	t9,-32660(gp)
 3902924:	0320f809 	jalr	t9
 3902928:	26054ad0 	addiu	a1,s0,19152
 390292c:	1220000f 	beqz	s1,390296c <nvt_flash_mtdpart_config+0x188>
 3902930:	8fbc0018 	lw	gp,24(sp)
 3902934:	8f858044 	lw	a1,-32700(gp)
 3902938:	02202021 	move	a0,s1
 390293c:	8f99811c 	lw	t9,-32484(gp)
 3902940:	0320f809 	jalr	t9
 3902944:	24a54ae4 	addiu	a1,a1,19172
 3902948:	10400003 	beqz	v0,3902958 <nvt_flash_mtdpart_config+0x174>
 390294c:	8fbc0018 	lw	gp,24(sp)
 3902950:	a0400000 	sb	zero,0(v0)
 3902954:	00408821 	move	s1,v0
 3902958:	8f998070 	lw	t9,-32656(gp)
 390295c:	26054ad0 	addiu	a1,s0,19152
 3902960:	0320f809 	jalr	t9
 3902964:	02202021 	move	a0,s1
 3902968:	8fbc0018 	lw	gp,24(sp)
 390296c:	26540002 	addiu	s4,s2,2
 3902970:	8f9e8044 	lw	s8,-32700(gp)
 3902974:	26520102 	addiu	s2,s2,258
 3902978:	0000b821 	move	s7,zero
 390297c:	afb20820 	sw	s2,2080(sp)
 3902980:	00009021 	move	s2,zero
 3902984:	8e830006 	lw	v1,6(s4)
 3902988:	106000ee 	beqz	v1,3902d44 <nvt_flash_mtdpart_config+0x560>
 390298c:	8e880002 	lw	t0,2(s4)
 3902990:	9682fffe 	lhu	v0,-2(s4)
 3902994:	0003ac00 	sll	s5,v1,0x10
 3902998:	0008b400 	sll	s6,t0,0x10
 390299c:	8f99806c 	lw	t9,-32660(gp)
 39029a0:	2442ffff 	addiu	v0,v0,-1
 39029a4:	3042ffff 	andi	v0,v0,0xffff
 39029a8:	2c44000d 	sltiu	a0,v0,13
 39029ac:	108000ca 	beqz	a0,3902cd8 <nvt_flash_mtdpart_config+0x4f4>
 39029b0:	27b00020 	addiu	s0,sp,32
 39029b4:	8f838044 	lw	v1,-32700(gp)
 39029b8:	00021080 	sll	v0,v0,0x2
 39029bc:	24634028 	addiu	v1,v1,16424
 39029c0:	00621021 	addu	v0,v1,v0
 39029c4:	8c420000 	lw	v0,0(v0)
 39029c8:	005c1021 	addu	v0,v0,gp
 39029cc:	00400008 	jr	v0
 39029d0:	00000000 	nop
 39029d4:	8f898044 	lw	t1,-32700(gp)
 39029d8:	02002021 	move	a0,s0
 39029dc:	02a03021 	move	a2,s5
 39029e0:	02c03821 	move	a3,s6
 39029e4:	25254af0 	addiu	a1,t1,19184
 39029e8:	0320f809 	jalr	t9
 39029ec:	afa90824 	sw	t1,2084(sp)
 39029f0:	02602021 	move	a0,s3
 39029f4:	8fbc0018 	lw	gp,24(sp)
 39029f8:	8f998070 	lw	t9,-32656(gp)
 39029fc:	0320f809 	jalr	t9
 3902a00:	02002821 	move	a1,s0
 3902a04:	8fbc0018 	lw	gp,24(sp)
 3902a08:	122000ce 	beqz	s1,3902d44 <nvt_flash_mtdpart_config+0x560>
 3902a0c:	8fa90824 	lw	t1,2084(sp)
 3902a10:	02002021 	move	a0,s0
 3902a14:	100000c0 	b	3902d18 <nvt_flash_mtdpart_config+0x534>
 3902a18:	25254af0 	addiu	a1,t1,19184
 3902a1c:	8f898044 	lw	t1,-32700(gp)
 3902a20:	02002021 	move	a0,s0
 3902a24:	02a03021 	move	a2,s5
 3902a28:	02c03821 	move	a3,s6
 3902a2c:	25254b04 	addiu	a1,t1,19204
 3902a30:	0320f809 	jalr	t9
 3902a34:	afa90824 	sw	t1,2084(sp)
 3902a38:	02602021 	move	a0,s3
 3902a3c:	8fbc0018 	lw	gp,24(sp)
 3902a40:	8f998070 	lw	t9,-32656(gp)
 3902a44:	0320f809 	jalr	t9
 3902a48:	02002821 	move	a1,s0
 3902a4c:	8fbc0018 	lw	gp,24(sp)
 3902a50:	122000bc 	beqz	s1,3902d44 <nvt_flash_mtdpart_config+0x560>
 3902a54:	8fa90824 	lw	t1,2084(sp)
 3902a58:	02002021 	move	a0,s0
 3902a5c:	100000ae 	b	3902d18 <nvt_flash_mtdpart_config+0x534>
 3902a60:	25254b04 	addiu	a1,t1,19204
 3902a64:	8f898044 	lw	t1,-32700(gp)
 3902a68:	02002021 	move	a0,s0
 3902a6c:	02a03021 	move	a2,s5
 3902a70:	02c03821 	move	a3,s6
 3902a74:	25254b1c 	addiu	a1,t1,19228
 3902a78:	0320f809 	jalr	t9
 3902a7c:	afa90824 	sw	t1,2084(sp)
 3902a80:	02602021 	move	a0,s3
 3902a84:	8fbc0018 	lw	gp,24(sp)
 3902a88:	8f998070 	lw	t9,-32656(gp)
 3902a8c:	0320f809 	jalr	t9
 3902a90:	02002821 	move	a1,s0
 3902a94:	8fbc0018 	lw	gp,24(sp)
 3902a98:	122000aa 	beqz	s1,3902d44 <nvt_flash_mtdpart_config+0x560>
 3902a9c:	8fa90824 	lw	t1,2084(sp)
 3902aa0:	02002021 	move	a0,s0
 3902aa4:	1000009c 	b	3902d18 <nvt_flash_mtdpart_config+0x534>
 3902aa8:	25254b1c 	addiu	a1,t1,19228
 3902aac:	8f898044 	lw	t1,-32700(gp)
 3902ab0:	02002021 	move	a0,s0
 3902ab4:	02a03021 	move	a2,s5
 3902ab8:	02c03821 	move	a3,s6
 3902abc:	25254b30 	addiu	a1,t1,19248
 3902ac0:	0320f809 	jalr	t9
 3902ac4:	afa90824 	sw	t1,2084(sp)
 3902ac8:	02602021 	move	a0,s3
 3902acc:	8fbc0018 	lw	gp,24(sp)
 3902ad0:	8f998070 	lw	t9,-32656(gp)
 3902ad4:	0320f809 	jalr	t9
 3902ad8:	02002821 	move	a1,s0
 3902adc:	8fbc0018 	lw	gp,24(sp)
 3902ae0:	12200098 	beqz	s1,3902d44 <nvt_flash_mtdpart_config+0x560>
 3902ae4:	8fa90824 	lw	t1,2084(sp)
 3902ae8:	02002021 	move	a0,s0
 3902aec:	1000008a 	b	3902d18 <nvt_flash_mtdpart_config+0x534>
 3902af0:	25254b30 	addiu	a1,t1,19248
 3902af4:	8f898044 	lw	t1,-32700(gp)
 3902af8:	02002021 	move	a0,s0
 3902afc:	02a03021 	move	a2,s5
 3902b00:	02c03821 	move	a3,s6
 3902b04:	25254b44 	addiu	a1,t1,19268
 3902b08:	0320f809 	jalr	t9
 3902b0c:	afa90824 	sw	t1,2084(sp)
 3902b10:	02602021 	move	a0,s3
 3902b14:	8fbc0018 	lw	gp,24(sp)
 3902b18:	8f998070 	lw	t9,-32656(gp)
 3902b1c:	0320f809 	jalr	t9
 3902b20:	02002821 	move	a1,s0
 3902b24:	8fbc0018 	lw	gp,24(sp)
 3902b28:	12200086 	beqz	s1,3902d44 <nvt_flash_mtdpart_config+0x560>
 3902b2c:	8fa90824 	lw	t1,2084(sp)
 3902b30:	02002021 	move	a0,s0
 3902b34:	10000078 	b	3902d18 <nvt_flash_mtdpart_config+0x534>
 3902b38:	25254b44 	addiu	a1,t1,19268
 3902b3c:	8f858044 	lw	a1,-32700(gp)
 3902b40:	02002021 	move	a0,s0
 3902b44:	1000002e 	b	3902c00 <nvt_flash_mtdpart_config+0x41c>
 3902b48:	24a54b58 	addiu	a1,a1,19288
 3902b4c:	8f898044 	lw	t1,-32700(gp)
 3902b50:	02002021 	move	a0,s0
 3902b54:	02a03021 	move	a2,s5
 3902b58:	02c03821 	move	a3,s6
 3902b5c:	25254b6c 	addiu	a1,t1,19308
 3902b60:	0320f809 	jalr	t9
 3902b64:	afa90824 	sw	t1,2084(sp)
 3902b68:	02602021 	move	a0,s3
 3902b6c:	8fbc0018 	lw	gp,24(sp)
 3902b70:	8f998070 	lw	t9,-32656(gp)
 3902b74:	0320f809 	jalr	t9
 3902b78:	02002821 	move	a1,s0
 3902b7c:	8fbc0018 	lw	gp,24(sp)
 3902b80:	12200070 	beqz	s1,3902d44 <nvt_flash_mtdpart_config+0x560>
 3902b84:	8fa90824 	lw	t1,2084(sp)
 3902b88:	02002021 	move	a0,s0
 3902b8c:	10000062 	b	3902d18 <nvt_flash_mtdpart_config+0x534>
 3902b90:	25254b6c 	addiu	a1,t1,19308
 3902b94:	8f858044 	lw	a1,-32700(gp)
 3902b98:	02002021 	move	a0,s0
 3902b9c:	10000018 	b	3902c00 <nvt_flash_mtdpart_config+0x41c>
 3902ba0:	24a54b80 	addiu	a1,a1,19328
 3902ba4:	8f858044 	lw	a1,-32700(gp)
 3902ba8:	02002021 	move	a0,s0
 3902bac:	02a03021 	move	a2,s5
 3902bb0:	02c03821 	move	a3,s6
 3902bb4:	0320f809 	jalr	t9
 3902bb8:	24a54b94 	addiu	a1,a1,19348
 3902bbc:	02602021 	move	a0,s3
 3902bc0:	8fbc0018 	lw	gp,24(sp)
 3902bc4:	8f998070 	lw	t9,-32656(gp)
 3902bc8:	0320f809 	jalr	t9
 3902bcc:	02002821 	move	a1,s0
 3902bd0:	1220005c 	beqz	s1,3902d44 <nvt_flash_mtdpart_config+0x560>
 3902bd4:	8fbc0018 	lw	gp,24(sp)
 3902bd8:	8f998070 	lw	t9,-32656(gp)
 3902bdc:	02202021 	move	a0,s1
 3902be0:	02002821 	move	a1,s0
 3902be4:	0320f809 	jalr	t9
 3902be8:	0240b821 	move	s7,s2
 3902bec:	10000055 	b	3902d44 <nvt_flash_mtdpart_config+0x560>
 3902bf0:	8fbc0018 	lw	gp,24(sp)
 3902bf4:	8f858044 	lw	a1,-32700(gp)
 3902bf8:	02002021 	move	a0,s0
 3902bfc:	24a54ba8 	addiu	a1,a1,19368
 3902c00:	02a03021 	move	a2,s5
 3902c04:	0320f809 	jalr	t9
 3902c08:	02c03821 	move	a3,s6
 3902c0c:	02602021 	move	a0,s3
 3902c10:	8fbc0018 	lw	gp,24(sp)
 3902c14:	8f998070 	lw	t9,-32656(gp)
 3902c18:	0320f809 	jalr	t9
 3902c1c:	02002821 	move	a1,s0
 3902c20:	16200042 	bnez	s1,3902d2c <nvt_flash_mtdpart_config+0x548>
 3902c24:	8fbc0018 	lw	gp,24(sp)
 3902c28:	10000047 	b	3902d48 <nvt_flash_mtdpart_config+0x564>
 3902c2c:	8fa30820 	lw	v1,2080(sp)
 3902c30:	8f898044 	lw	t1,-32700(gp)
 3902c34:	02002021 	move	a0,s0
 3902c38:	96820000 	lhu	v0,0(s4)
 3902c3c:	02a03021 	move	a2,s5
 3902c40:	02c03821 	move	a3,s6
 3902c44:	25254bb8 	addiu	a1,t1,19384
 3902c48:	afa90824 	sw	t1,2084(sp)
 3902c4c:	0320f809 	jalr	t9
 3902c50:	afa20010 	sw	v0,16(sp)
 3902c54:	02602021 	move	a0,s3
 3902c58:	8fbc0018 	lw	gp,24(sp)
 3902c5c:	8f998070 	lw	t9,-32656(gp)
 3902c60:	0320f809 	jalr	t9
 3902c64:	02002821 	move	a1,s0
 3902c68:	8fbc0018 	lw	gp,24(sp)
 3902c6c:	12200035 	beqz	s1,3902d44 <nvt_flash_mtdpart_config+0x560>
 3902c70:	8fa90824 	lw	t1,2084(sp)
 3902c74:	96820000 	lhu	v0,0(s4)
 3902c78:	25254bb8 	addiu	a1,t1,19384
 3902c7c:	8f99806c 	lw	t9,-32660(gp)
 3902c80:	02002021 	move	a0,s0
 3902c84:	02a03021 	move	a2,s5
 3902c88:	02c03821 	move	a3,s6
 3902c8c:	0320f809 	jalr	t9
 3902c90:	afa20010 	sw	v0,16(sp)
 3902c94:	10000025 	b	3902d2c <nvt_flash_mtdpart_config+0x548>
 3902c98:	8fbc0018 	lw	gp,24(sp)
 3902c9c:	27c54bcc 	addiu	a1,s8,19404
 3902ca0:	02002021 	move	a0,s0
 3902ca4:	02a03021 	move	a2,s5
 3902ca8:	0320f809 	jalr	t9
 3902cac:	02c03821 	move	a3,s6
 3902cb0:	02602021 	move	a0,s3
 3902cb4:	8fbc0018 	lw	gp,24(sp)
 3902cb8:	8f998070 	lw	t9,-32656(gp)
 3902cbc:	0320f809 	jalr	t9
 3902cc0:	02002821 	move	a1,s0
 3902cc4:	1220001f 	beqz	s1,3902d44 <nvt_flash_mtdpart_config+0x560>
 3902cc8:	8fbc0018 	lw	gp,24(sp)
 3902ccc:	02002021 	move	a0,s0
 3902cd0:	10000011 	b	3902d18 <nvt_flash_mtdpart_config+0x534>
 3902cd4:	27c54bcc 	addiu	a1,s8,19404
 3902cd8:	8f858044 	lw	a1,-32700(gp)
 3902cdc:	02002021 	move	a0,s0
 3902ce0:	02a03021 	move	a2,s5
 3902ce4:	02c03821 	move	a3,s6
 3902ce8:	0320f809 	jalr	t9
 3902cec:	24a54be0 	addiu	a1,a1,19424
 3902cf0:	02602021 	move	a0,s3
 3902cf4:	8fbc0018 	lw	gp,24(sp)
 3902cf8:	8f998070 	lw	t9,-32656(gp)
 3902cfc:	0320f809 	jalr	t9
 3902d00:	02002821 	move	a1,s0
 3902d04:	1220000f 	beqz	s1,3902d44 <nvt_flash_mtdpart_config+0x560>
 3902d08:	8fbc0018 	lw	gp,24(sp)
 3902d0c:	8f858044 	lw	a1,-32700(gp)
 3902d10:	02002021 	move	a0,s0
 3902d14:	24a54be0 	addiu	a1,a1,19424
 3902d18:	8f99806c 	lw	t9,-32660(gp)
 3902d1c:	02a03021 	move	a2,s5
 3902d20:	0320f809 	jalr	t9
 3902d24:	02c03821 	move	a3,s6
 3902d28:	8fbc0018 	lw	gp,24(sp)
 3902d2c:	8f998070 	lw	t9,-32656(gp)
 3902d30:	02202021 	move	a0,s1
 3902d34:	02002821 	move	a1,s0
 3902d38:	0320f809 	jalr	t9
 3902d3c:	26520001 	addiu	s2,s2,1
 3902d40:	8fbc0018 	lw	gp,24(sp)
 3902d44:	8fa30820 	lw	v1,2080(sp)
 3902d48:	26940010 	addiu	s4,s4,16
 3902d4c:	5683ff0e 	bnel	s4,v1,3902988 <nvt_flash_mtdpart_config+0x1a4>
 3902d50:	8e830006 	lw	v1,6(s4)
 3902d54:	12200022 	beqz	s1,3902de0 <nvt_flash_mtdpart_config+0x5fc>
 3902d58:	27b00020 	addiu	s0,sp,32
 3902d5c:	8f828120 	lw	v0,-32480(gp)
 3902d60:	02002021 	move	a0,s0
 3902d64:	8f858044 	lw	a1,-32700(gp)
 3902d68:	8f99806c 	lw	t9,-32660(gp)
 3902d6c:	8c420000 	lw	v0,0(v0)
 3902d70:	24a54bf4 	addiu	a1,a1,19444
 3902d74:	0320f809 	jalr	t9
 3902d78:	8c46000c 	lw	a2,12(v0)
 3902d7c:	02002821 	move	a1,s0
 3902d80:	8fbc0018 	lw	gp,24(sp)
 3902d84:	8f998070 	lw	t9,-32656(gp)
 3902d88:	0320f809 	jalr	t9
 3902d8c:	02202021 	move	a0,s1
 3902d90:	8fbc0018 	lw	gp,24(sp)
 3902d94:	8f9980a4 	lw	t9,-32604(gp)
 3902d98:	0320f809 	jalr	t9
 3902d9c:	02202021 	move	a0,s1
 3902da0:	24030020 	li	v1,32
 3902da4:	8fbc0018 	lw	gp,24(sp)
 3902da8:	02221021 	addu	v0,s1,v0
 3902dac:	02002021 	move	a0,s0
 3902db0:	a043ffff 	sb	v1,-1(v0)
 3902db4:	02e03021 	move	a2,s7
 3902db8:	8f858044 	lw	a1,-32700(gp)
 3902dbc:	8f99806c 	lw	t9,-32660(gp)
 3902dc0:	0320f809 	jalr	t9
 3902dc4:	24a54c04 	addiu	a1,a1,19460
 3902dc8:	02202021 	move	a0,s1
 3902dcc:	8fbc0018 	lw	gp,24(sp)
 3902dd0:	8f998070 	lw	t9,-32656(gp)
 3902dd4:	0320f809 	jalr	t9
 3902dd8:	02002821 	move	a1,s0
 3902ddc:	8fbc0018 	lw	gp,24(sp)
 3902de0:	8f9980a4 	lw	t9,-32604(gp)
 3902de4:	0320f809 	jalr	t9
 3902de8:	02602021 	move	a0,s3
 3902dec:	02602821 	move	a1,s3
 3902df0:	8fbc0018 	lw	gp,24(sp)
 3902df4:	02021021 	addu	v0,s0,v0
 3902df8:	a04003ff 	sb	zero,1023(v0)
 3902dfc:	8f848044 	lw	a0,-32700(gp)
 3902e00:	8f998088 	lw	t9,-32632(gp)
 3902e04:	0320f809 	jalr	t9
 3902e08:	24844c1c 	addiu	a0,a0,19484
 3902e0c:	8fbf084c 	lw	ra,2124(sp)
 3902e10:	8fbe0848 	lw	s8,2120(sp)
 3902e14:	8fb70844 	lw	s7,2116(sp)
 3902e18:	8fb60840 	lw	s6,2112(sp)
 3902e1c:	8fb5083c 	lw	s5,2108(sp)
 3902e20:	8fb40838 	lw	s4,2104(sp)
 3902e24:	8fb30834 	lw	s3,2100(sp)
 3902e28:	8fb20830 	lw	s2,2096(sp)
 3902e2c:	8fb1082c 	lw	s1,2092(sp)
 3902e30:	8fb00828 	lw	s0,2088(sp)
 3902e34:	03e00008 	jr	ra
 3902e38:	27bd0850 	addiu	sp,sp,2128

03902e3c <nvt_modelext_init_bininfo_replace>:
 3902e3c:	3c1c0004 	lui	gp,0x4
 3902e40:	279c3ac4 	addiu	gp,gp,15044
 3902e44:	0399e021 	addu	gp,gp,t9
 3902e48:	27bdff38 	addiu	sp,sp,-200
 3902e4c:	8f998038 	lw	t9,-32712(gp)
 3902e50:	24042000 	li	a0,8192
 3902e54:	00002821 	move	a1,zero
 3902e58:	afbf00c4 	sw	ra,196(sp)
 3902e5c:	24061000 	li	a2,4096
 3902e60:	afbc0018 	sw	gp,24(sp)
 3902e64:	afb100bc 	sw	s1,188(sp)
 3902e68:	3c11038f 	lui	s1,0x38f
 3902e6c:	afb000b8 	sw	s0,184(sp)
 3902e70:	27b00020 	addiu	s0,sp,32
 3902e74:	0320f809 	jalr	t9
 3902e78:	afb200c0 	sw	s2,192(sp)
 3902e7c:	24021000 	li	v0,4096
 3902e80:	8fbc0018 	lw	gp,24(sp)
 3902e84:	3c070001 	lui	a3,0x1
 3902e88:	3626f000 	ori	a2,s1,0xf000
 3902e8c:	02002021 	move	a0,s0
 3902e90:	afa20010 	sw	v0,16(sp)
 3902e94:	8f858044 	lw	a1,-32700(gp)
 3902e98:	8f99806c 	lw	t9,-32660(gp)
 3902e9c:	0320f809 	jalr	t9
 3902ea0:	24a54d7c 	addiu	a1,a1,19836
 3902ea4:	02002821 	move	a1,s0
 3902ea8:	8fbc0018 	lw	gp,24(sp)
 3902eac:	8f848044 	lw	a0,-32700(gp)
 3902eb0:	8f998040 	lw	t9,-32704(gp)
 3902eb4:	0320f809 	jalr	t9
 3902eb8:	24844348 	addiu	a0,a0,17224
 3902ebc:	00002821 	move	a1,zero
 3902ec0:	8fbc0018 	lw	gp,24(sp)
 3902ec4:	8f9980a0 	lw	t9,-32608(gp)
 3902ec8:	0320f809 	jalr	t9
 3902ecc:	02002021 	move	a0,s0
 3902ed0:	24060008 	li	a2,8
 3902ed4:	8fbc0018 	lw	gp,24(sp)
 3902ed8:	3624f010 	ori	a0,s1,0xf010
 3902edc:	8f908044 	lw	s0,-32700(gp)
 3902ee0:	8f998110 	lw	t9,-32496(gp)
 3902ee4:	0320f809 	jalr	t9
 3902ee8:	26054358 	addiu	a1,s0,17240
 3902eec:	8fbc0018 	lw	gp,24(sp)
 3902ef0:	1440002b 	bnez	v0,3902fa0 <nvt_modelext_init_bininfo_replace+0x164>
 3902ef4:	8f998040 	lw	t9,-32704(gp)
 3902ef8:	8f848044 	lw	a0,-32700(gp)
 3902efc:	0320f809 	jalr	t9
 3902f00:	24844d90 	addiu	a0,a0,19856
 3902f04:	24061000 	li	a2,4096
 3902f08:	8fbc0018 	lw	gp,24(sp)
 3902f0c:	24042000 	li	a0,8192
 3902f10:	8f9980ac 	lw	t9,-32596(gp)
 3902f14:	0320f809 	jalr	t9
 3902f18:	3625f000 	ori	a1,s1,0xf000
 3902f1c:	24053000 	li	a1,12288
 3902f20:	8fbc0018 	lw	gp,24(sp)
 3902f24:	8f99804c 	lw	t9,-32692(gp)
 3902f28:	0320f809 	jalr	t9
 3902f2c:	24042000 	li	a0,8192
 3902f30:	8fbc0018 	lw	gp,24(sp)
 3902f34:	8f9980a4 	lw	t9,-32604(gp)
 3902f38:	0320f809 	jalr	t9
 3902f3c:	26044358 	addiu	a0,s0,17240
 3902f40:	24042010 	li	a0,8208
 3902f44:	8fbc0018 	lw	gp,24(sp)
 3902f48:	26054358 	addiu	a1,s0,17240
 3902f4c:	8f9980a8 	lw	t9,-32600(gp)
 3902f50:	0320f809 	jalr	t9
 3902f54:	00403021 	move	a2,v0
 3902f58:	1440004c 	bnez	v0,390308c <nvt_modelext_init_bininfo_replace+0x250>
 3902f5c:	8fbc0018 	lw	gp,24(sp)
 3902f60:	8c022030 	lw	v0,8240(zero)
 3902f64:	24102000 	li	s0,8192
 3902f68:	24040002 	li	a0,2
 3902f6c:	24422000 	addiu	v0,v0,8192
 3902f70:	8e030000 	lw	v1,0(s0)
 3902f74:	50600046 	beqzl	v1,3903090 <nvt_modelext_init_bininfo_replace+0x254>
 3902f78:	8f908124 	lw	s0,-32476(gp)
 3902f7c:	8e050004 	lw	a1,4(s0)
 3902f80:	50a4004e 	beql	a1,a0,39030bc <nvt_modelext_init_bininfo_replace+0x280>
 3902f84:	8f918124 	lw	s1,-32476(gp)
 3902f88:	02038021 	addu	s0,s0,v1
 3902f8c:	0202182b 	sltu	v1,s0,v0
 3902f90:	5460fff8 	bnezl	v1,3902f74 <nvt_modelext_init_bininfo_replace+0x138>
 3902f94:	8e030000 	lw	v1,0(s0)
 3902f98:	1000003d 	b	3903090 <nvt_modelext_init_bininfo_replace+0x254>
 3902f9c:	8f908124 	lw	s0,-32476(gp)
 3902fa0:	8f8280cc 	lw	v0,-32564(gp)
 3902fa4:	27b100a0 	addiu	s1,sp,160
 3902fa8:	8f848044 	lw	a0,-32700(gp)
 3902fac:	afa000b0 	sw	zero,176(sp)
 3902fb0:	8c520004 	lw	s2,4(v0)
 3902fb4:	3c020390 	lui	v0,0x390
 3902fb8:	24844de4 	addiu	a0,a0,19940
 3902fbc:	00521023 	subu	v0,v0,s2
 3902fc0:	0320f809 	jalr	t9
 3902fc4:	afa200ac 	sw	v0,172(sp)
 3902fc8:	00002821 	move	a1,zero
 3902fcc:	8fbc0018 	lw	gp,24(sp)
 3902fd0:	2406000c 	li	a2,12
 3902fd4:	8f998038 	lw	t9,-32712(gp)
 3902fd8:	0320f809 	jalr	t9
 3902fdc:	02202021 	move	a0,s1
 3902fe0:	24020001 	li	v0,1
 3902fe4:	8fbc0018 	lw	gp,24(sp)
 3902fe8:	27a500ac 	addiu	a1,sp,172
 3902fec:	afb200a8 	sw	s2,168(sp)
 3902ff0:	02202021 	move	a0,s1
 3902ff4:	afa200a0 	sw	v0,160(sp)
 3902ff8:	3c020010 	lui	v0,0x10
 3902ffc:	24421000 	addiu	v0,v0,4096
 3903000:	8f9980d4 	lw	t9,-32556(gp)
 3903004:	0320f809 	jalr	t9
 3903008:	afa200a4 	sw	v0,164(sp)
 390300c:	14400018 	bnez	v0,3903070 <nvt_modelext_init_bininfo_replace+0x234>
 3903010:	8fbc0018 	lw	gp,24(sp)
 3903014:	8fa400ac 	lw	a0,172(sp)
 3903018:	26054358 	addiu	a1,s0,17240
 390301c:	8f998110 	lw	t9,-32496(gp)
 3903020:	24060008 	li	a2,8
 3903024:	0320f809 	jalr	t9
 3903028:	24840010 	addiu	a0,a0,16
 390302c:	8fbc0018 	lw	gp,24(sp)
 3903030:	1040000c 	beqz	v0,3903064 <nvt_modelext_init_bininfo_replace+0x228>
 3903034:	8f998040 	lw	t9,-32704(gp)
 3903038:	8f848044 	lw	a0,-32700(gp)
 390303c:	0320f809 	jalr	t9
 3903040:	24844e00 	addiu	a0,a0,19968
 3903044:	8fbc0018 	lw	gp,24(sp)
 3903048:	8f848044 	lw	a0,-32700(gp)
 390304c:	2405ffff 	li	a1,-1
 3903050:	8f998040 	lw	t9,-32704(gp)
 3903054:	0320f809 	jalr	t9
 3903058:	24844e50 	addiu	a0,a0,20048
 390305c:	1000002b 	b	390310c <nvt_modelext_init_bininfo_replace+0x2d0>
 3903060:	2402ffff 	li	v0,-1
 3903064:	8f848044 	lw	a0,-32700(gp)
 3903068:	10000004 	b	390307c <nvt_modelext_init_bininfo_replace+0x240>
 390306c:	24844e20 	addiu	a0,a0,20000
 3903070:	8f848044 	lw	a0,-32700(gp)
 3903074:	8f998040 	lw	t9,-32704(gp)
 3903078:	24844e3c 	addiu	a0,a0,20028
 390307c:	0320f809 	jalr	t9
 3903080:	00000000 	nop
 3903084:	10000021 	b	390310c <nvt_modelext_init_bininfo_replace+0x2d0>
 3903088:	00001021 	move	v0,zero
 390308c:	8f908124 	lw	s0,-32476(gp)
 3903090:	24060040 	li	a2,64
 3903094:	8f9980ac 	lw	t9,-32596(gp)
 3903098:	24040080 	li	a0,128
 390309c:	0320f809 	jalr	t9
 39030a0:	8e050000 	lw	a1,0(s0)
 39030a4:	8fbc0018 	lw	gp,24(sp)
 39030a8:	8f998128 	lw	t9,-32472(gp)
 39030ac:	0320f809 	jalr	t9
 39030b0:	8e040000 	lw	a0,0(s0)
 39030b4:	8c02000c 	lw	v0,12(zero)
 39030b8:	00000034 	teq	zero,zero
 39030bc:	24060040 	li	a2,64
 39030c0:	8f9980ac 	lw	t9,-32596(gp)
 39030c4:	26040090 	addiu	a0,s0,144
 39030c8:	0320f809 	jalr	t9
 39030cc:	8e250000 	lw	a1,0(s1)
 39030d0:	8fbc0018 	lw	gp,24(sp)
 39030d4:	8f998128 	lw	t9,-32472(gp)
 39030d8:	0320f809 	jalr	t9
 39030dc:	8e240000 	lw	a0,0(s1)
 39030e0:	3c061606 	lui	a2,0x1606
 39030e4:	8e05000c 	lw	a1,12(s0)
 39030e8:	24c62414 	addiu	a2,a2,9236
 39030ec:	10a6ffe5 	beq	a1,a2,3903084 <nvt_modelext_init_bininfo_replace+0x248>
 39030f0:	8fbc0018 	lw	gp,24(sp)
 39030f4:	8f848044 	lw	a0,-32700(gp)
 39030f8:	8f998040 	lw	t9,-32704(gp)
 39030fc:	0320f809 	jalr	t9
 3903100:	24844da8 	addiu	a0,a0,19880
 3903104:	1000ffd0 	b	3903048 <nvt_modelext_init_bininfo_replace+0x20c>
 3903108:	8fbc0018 	lw	gp,24(sp)
 390310c:	8fbf00c4 	lw	ra,196(sp)
 3903110:	8fb200c0 	lw	s2,192(sp)
 3903114:	8fb100bc 	lw	s1,188(sp)
 3903118:	8fb000b8 	lw	s0,184(sp)
 390311c:	03e00008 	jr	ra
 3903120:	27bd00c8 	addiu	sp,sp,200

03903124 <nvt_modelext_bininfo_init>:
 3903124:	3c1c0004 	lui	gp,0x4
 3903128:	279c37dc 	addiu	gp,gp,14300
 390312c:	0399e021 	addu	gp,gp,t9
 3903130:	27bdffe0 	addiu	sp,sp,-32
 3903134:	8f9980a4 	lw	t9,-32604(gp)
 3903138:	afb00018 	sw	s0,24(sp)
 390313c:	afbc0010 	sw	gp,16(sp)
 3903140:	afbf001c 	sw	ra,28(sp)
 3903144:	8f908044 	lw	s0,-32700(gp)
 3903148:	0320f809 	jalr	t9
 390314c:	26044358 	addiu	a0,s0,17240
 3903150:	26054358 	addiu	a1,s0,17240
 3903154:	8fbc0010 	lw	gp,16(sp)
 3903158:	24042010 	li	a0,8208
 390315c:	00403021 	move	a2,v0
 3903160:	8f9980a8 	lw	t9,-32600(gp)
 3903164:	0320f809 	jalr	t9
 3903168:	00008021 	move	s0,zero
 390316c:	14400010 	bnez	v0,39031b0 <nvt_modelext_bininfo_init+0x8c>
 3903170:	8fbc0010 	lw	gp,16(sp)
 3903174:	8c022030 	lw	v0,8240(zero)
 3903178:	24102000 	li	s0,8192
 390317c:	24040002 	li	a0,2
 3903180:	24422000 	addiu	v0,v0,8192
 3903184:	8e030000 	lw	v1,0(s0)
 3903188:	50600009 	beqzl	v1,39031b0 <nvt_modelext_bininfo_init+0x8c>
 390318c:	00008021 	move	s0,zero
 3903190:	8e050004 	lw	a1,4(s0)
 3903194:	50a40006 	beql	a1,a0,39031b0 <nvt_modelext_bininfo_init+0x8c>
 3903198:	26100010 	addiu	s0,s0,16
 390319c:	02038021 	addu	s0,s0,v1
 39031a0:	0202182b 	sltu	v1,s0,v0
 39031a4:	5460fff8 	bnezl	v1,3903188 <nvt_modelext_bininfo_init+0x64>
 39031a8:	8e030000 	lw	v1,0(s0)
 39031ac:	00008021 	move	s0,zero
 39031b0:	8f858044 	lw	a1,-32700(gp)
 39031b4:	26040080 	addiu	a0,s0,128
 39031b8:	8f998110 	lw	t9,-32496(gp)
 39031bc:	24060006 	li	a2,6
 39031c0:	0320f809 	jalr	t9
 39031c4:	24a54e70 	addiu	a1,a1,20080
 39031c8:	1040000b 	beqz	v0,39031f8 <nvt_modelext_bininfo_init+0xd4>
 39031cc:	8fbc0010 	lw	gp,16(sp)
 39031d0:	8f848044 	lw	a0,-32700(gp)
 39031d4:	8f858044 	lw	a1,-32700(gp)
 39031d8:	8f868044 	lw	a2,-32700(gp)
 39031dc:	8f998040 	lw	t9,-32704(gp)
 39031e0:	24844e78 	addiu	a0,a0,20088
 39031e4:	24a54108 	addiu	a1,a1,16648
 39031e8:	0320f809 	jalr	t9
 39031ec:	24c640ec 	addiu	a2,a2,16620
 39031f0:	1000ffff 	b	39031f0 <nvt_modelext_bininfo_init+0xcc>
 39031f4:	00000000 	nop
 39031f8:	26030110 	addiu	v1,s0,272
 39031fc:	8f82803c 	lw	v0,-32708(gp)
 3903200:	8fbf001c 	lw	ra,28(sp)
 3903204:	ac430000 	sw	v1,0(v0)
 3903208:	26030114 	addiu	v1,s0,276
 390320c:	8f8280e0 	lw	v0,-32544(gp)
 3903210:	ac430000 	sw	v1,0(v0)
 3903214:	26030118 	addiu	v1,s0,280
 3903218:	8f82812c 	lw	v0,-32468(gp)
 390321c:	ac430000 	sw	v1,0(v0)
 3903220:	2603011c 	addiu	v1,s0,284
 3903224:	8f8280b8 	lw	v0,-32584(gp)
 3903228:	ac430000 	sw	v1,0(v0)
 390322c:	26030120 	addiu	v1,s0,288
 3903230:	8f8280bc 	lw	v0,-32580(gp)
 3903234:	ac430000 	sw	v1,0(v0)
 3903238:	26030124 	addiu	v1,s0,292
 390323c:	8f828130 	lw	v0,-32464(gp)
 3903240:	26100128 	addiu	s0,s0,296
 3903244:	ac430000 	sw	v1,0(v0)
 3903248:	8f828134 	lw	v0,-32460(gp)
 390324c:	ac500000 	sw	s0,0(v0)
 3903250:	8fb00018 	lw	s0,24(sp)
 3903254:	03e00008 	jr	ra
 3903258:	27bd0020 	addiu	sp,sp,32

0390325c <nvt_ipc_init>:
 390325c:	3c1c0004 	lui	gp,0x4
 3903260:	279c36a4 	addiu	gp,gp,13988
 3903264:	0399e021 	addu	gp,gp,t9
 3903268:	27bdffe0 	addiu	sp,sp,-32
 390326c:	8f9980a4 	lw	t9,-32604(gp)
 3903270:	afb00018 	sw	s0,24(sp)
 3903274:	afbc0010 	sw	gp,16(sp)
 3903278:	afbf001c 	sw	ra,28(sp)
 390327c:	8f908044 	lw	s0,-32700(gp)
 3903280:	0320f809 	jalr	t9
 3903284:	26044358 	addiu	a0,s0,17240
 3903288:	24042010 	li	a0,8208
 390328c:	8fbc0010 	lw	gp,16(sp)
 3903290:	26054358 	addiu	a1,s0,17240
 3903294:	8f9980a8 	lw	t9,-32600(gp)
 3903298:	0320f809 	jalr	t9
 390329c:	00403021 	move	a2,v0
 39032a0:	1440000f 	bnez	v0,39032e0 <nvt_ipc_init+0x84>
 39032a4:	8fbc0010 	lw	gp,16(sp)
 39032a8:	8c022030 	lw	v0,8240(zero)
 39032ac:	24102000 	li	s0,8192
 39032b0:	24040007 	li	a0,7
 39032b4:	24422000 	addiu	v0,v0,8192
 39032b8:	8e030000 	lw	v1,0(s0)
 39032bc:	50600009 	beqzl	v1,39032e4 <nvt_ipc_init+0x88>
 39032c0:	8f848044 	lw	a0,-32700(gp)
 39032c4:	8e050004 	lw	a1,4(s0)
 39032c8:	50a4000c 	beql	a1,a0,39032fc <nvt_ipc_init+0xa0>
 39032cc:	26020010 	addiu	v0,s0,16
 39032d0:	02038021 	addu	s0,s0,v1
 39032d4:	0202182b 	sltu	v1,s0,v0
 39032d8:	5460fff8 	bnezl	v1,39032bc <nvt_ipc_init+0x60>
 39032dc:	8e030000 	lw	v1,0(s0)
 39032e0:	8f848044 	lw	a0,-32700(gp)
 39032e4:	8fbf001c 	lw	ra,28(sp)
 39032e8:	8fb00018 	lw	s0,24(sp)
 39032ec:	27bd0020 	addiu	sp,sp,32
 39032f0:	8f998040 	lw	t9,-32704(gp)
 39032f4:	03200008 	jr	t9
 39032f8:	24844eb4 	addiu	a0,a0,20148
 39032fc:	1040fff8 	beqz	v0,39032e0 <nvt_ipc_init+0x84>
 3903300:	8f998038 	lw	t9,-32712(gp)
 3903304:	3c040010 	lui	a0,0x10
 3903308:	00002821 	move	a1,zero
 390330c:	0320f809 	jalr	t9
 3903310:	24061000 	li	a2,4096
 3903314:	2402ffff 	li	v0,-1
 3903318:	3c050010 	lui	a1,0x10
 390331c:	8fbc0010 	lw	gp,16(sp)
 3903320:	8fbf001c 	lw	ra,28(sp)
 3903324:	3c040010 	lui	a0,0x10
 3903328:	aca20004 	sw	v0,4(a1)
 390332c:	24a51000 	addiu	a1,a1,4096
 3903330:	8e020018 	lw	v0,24(s0)
 3903334:	8f99804c 	lw	t9,-32692(gp)
 3903338:	aca2f0a4 	sw	v0,-3932(a1)
 390333c:	8e02001c 	lw	v0,28(s0)
 3903340:	aca2f0a8 	sw	v0,-3928(a1)
 3903344:	8e020040 	lw	v0,64(s0)
 3903348:	aca2f0ac 	sw	v0,-3924(a1)
 390334c:	8e020044 	lw	v0,68(s0)
 3903350:	aca2f0b0 	sw	v0,-3920(a1)
 3903354:	8e020060 	lw	v0,96(s0)
 3903358:	aca2f0b4 	sw	v0,-3916(a1)
 390335c:	8e020064 	lw	v0,100(s0)
 3903360:	8fb00018 	lw	s0,24(sp)
 3903364:	aca2f0b8 	sw	v0,-3912(a1)
 3903368:	3c021706 	lui	v0,0x1706
 390336c:	24421900 	addiu	v0,v0,6400
 3903370:	aca2f000 	sw	v0,-4096(a1)
 3903374:	03200008 	jr	t9
 3903378:	27bd0020 	addiu	sp,sp,32

0390337c <nvt_detect_fw_tbin>:
 390337c:	3c1c0004 	lui	gp,0x4
 3903380:	279c3584 	addiu	gp,gp,13700
 3903384:	0399e021 	addu	gp,gp,t9
 3903388:	27bdffe0 	addiu	sp,sp,-32
 390338c:	8f9980a4 	lw	t9,-32604(gp)
 3903390:	afb00018 	sw	s0,24(sp)
 3903394:	afbc0010 	sw	gp,16(sp)
 3903398:	afbf001c 	sw	ra,28(sp)
 390339c:	8f908044 	lw	s0,-32700(gp)
 39033a0:	0320f809 	jalr	t9
 39033a4:	26044358 	addiu	a0,s0,17240
 39033a8:	26054358 	addiu	a1,s0,17240
 39033ac:	8fbc0010 	lw	gp,16(sp)
 39033b0:	24042010 	li	a0,8208
 39033b4:	8f9980a8 	lw	t9,-32600(gp)
 39033b8:	0320f809 	jalr	t9
 39033bc:	00403021 	move	a2,v0
 39033c0:	8fbc0010 	lw	gp,16(sp)
 39033c4:	14400013 	bnez	v0,3903414 <nvt_detect_fw_tbin+0x98>
 39033c8:	00408021 	move	s0,v0
 39033cc:	8c032030 	lw	v1,8240(zero)
 39033d0:	24022000 	li	v0,8192
 39033d4:	24050002 	li	a1,2
 39033d8:	24632000 	addiu	v1,v1,8192
 39033dc:	8c440000 	lw	a0,0(v0)
 39033e0:	5080001d 	beqzl	a0,3903458 <nvt_detect_fw_tbin+0xdc>
 39033e4:	2410ffff 	li	s0,-1
 39033e8:	8c460004 	lw	a2,4(v0)
 39033ec:	50c50007 	beql	a2,a1,390340c <nvt_detect_fw_tbin+0x90>
 39033f0:	24430010 	addiu	v1,v0,16
 39033f4:	00441021 	addu	v0,v0,a0
 39033f8:	0043202b 	sltu	a0,v0,v1
 39033fc:	5480fff8 	bnezl	a0,39033e0 <nvt_detect_fw_tbin+0x64>
 3903400:	8c440000 	lw	a0,0(v0)
 3903404:	10000014 	b	3903458 <nvt_detect_fw_tbin+0xdc>
 3903408:	2410ffff 	li	s0,-1
 390340c:	54600003 	bnezl	v1,390341c <nvt_detect_fw_tbin+0xa0>
 3903410:	8c4200a4 	lw	v0,164(v0)
 3903414:	10000010 	b	3903458 <nvt_detect_fw_tbin+0xdc>
 3903418:	2410ffff 	li	s0,-1
 390341c:	8f858044 	lw	a1,-32700(gp)
 3903420:	30420004 	andi	v0,v0,0x4
 3903424:	10400008 	beqz	v0,3903448 <nvt_detect_fw_tbin+0xcc>
 3903428:	8f998040 	lw	t9,-32704(gp)
 390342c:	8f848044 	lw	a0,-32700(gp)
 3903430:	24a52dc4 	addiu	a1,a1,11716
 3903434:	24100001 	li	s0,1
 3903438:	0320f809 	jalr	t9
 390343c:	24844ed8 	addiu	a0,a0,20184
 3903440:	10000006 	b	390345c <nvt_detect_fw_tbin+0xe0>
 3903444:	8fbf001c 	lw	ra,28(sp)
 3903448:	8f848044 	lw	a0,-32700(gp)
 390344c:	24a52dc4 	addiu	a1,a1,11716
 3903450:	0320f809 	jalr	t9
 3903454:	24844ef0 	addiu	a0,a0,20208
 3903458:	8fbf001c 	lw	ra,28(sp)
 390345c:	02001021 	move	v0,s0
 3903460:	8fb00018 	lw	s0,24(sp)
 3903464:	03e00008 	jr	ra
 3903468:	27bd0020 	addiu	sp,sp,32

0390346c <nvt_modelext_init>:
 390346c:	3c1c0004 	lui	gp,0x4
 3903470:	279c3494 	addiu	gp,gp,13460
 3903474:	0399e021 	addu	gp,gp,t9
 3903478:	27bdffd8 	addiu	sp,sp,-40
 390347c:	8f998064 	lw	t9,-32668(gp)
 3903480:	afbc0010 	sw	gp,16(sp)
 3903484:	afbf0024 	sw	ra,36(sp)
 3903488:	afb10020 	sw	s1,32(sp)
 390348c:	0320f809 	jalr	t9
 3903490:	afb0001c 	sw	s0,28(sp)
 3903494:	14400012 	bnez	v0,39034e0 <nvt_modelext_init+0x74>
 3903498:	8fbc0010 	lw	gp,16(sp)
 390349c:	8f908044 	lw	s0,-32700(gp)
 39034a0:	8f9980a4 	lw	t9,-32604(gp)
 39034a4:	0320f809 	jalr	t9
 39034a8:	26044358 	addiu	a0,s0,17240
 39034ac:	24042010 	li	a0,8208
 39034b0:	8fbc0010 	lw	gp,16(sp)
 39034b4:	26054358 	addiu	a1,s0,17240
 39034b8:	8f9980a8 	lw	t9,-32600(gp)
 39034bc:	0320f809 	jalr	t9
 39034c0:	00403021 	move	a2,v0
 39034c4:	1440001b 	bnez	v0,3903534 <nvt_modelext_init+0xc8>
 39034c8:	8fbc0010 	lw	gp,16(sp)
 39034cc:	8c032030 	lw	v1,8240(zero)
 39034d0:	24022000 	li	v0,8192
 39034d4:	24050002 	li	a1,2
 39034d8:	1000000f 	b	3903518 <nvt_modelext_init+0xac>
 39034dc:	24632000 	addiu	v1,v1,8192
 39034e0:	8f998064 	lw	t9,-32668(gp)
 39034e4:	0320f809 	jalr	t9
 39034e8:	00000000 	nop
 39034ec:	24030001 	li	v1,1
 39034f0:	1443ffea 	bne	v0,v1,390349c <nvt_modelext_init+0x30>
 39034f4:	8fbc0010 	lw	gp,16(sp)
 39034f8:	10000054 	b	390364c <nvt_modelext_init+0x1e0>
 39034fc:	00001021 	move	v0,zero
 3903500:	50c5000a 	beql	a2,a1,390352c <nvt_modelext_init+0xc0>
 3903504:	24420010 	addiu	v0,v0,16
 3903508:	00441021 	addu	v0,v0,a0
 390350c:	0043202b 	sltu	a0,v0,v1
 3903510:	10800009 	beqz	a0,3903538 <nvt_modelext_init+0xcc>
 3903514:	8f998024 	lw	t9,-32732(gp)
 3903518:	8c440000 	lw	a0,0(v0)
 390351c:	5480fff8 	bnezl	a0,3903500 <nvt_modelext_init+0x94>
 3903520:	8c460004 	lw	a2,4(v0)
 3903524:	10000004 	b	3903538 <nvt_modelext_init+0xcc>
 3903528:	8f998024 	lw	t9,-32732(gp)
 390352c:	14400008 	bnez	v0,3903550 <nvt_modelext_init+0xe4>
 3903530:	8f998138 	lw	t9,-32456(gp)
 3903534:	8f998024 	lw	t9,-32732(gp)
 3903538:	8fbf0024 	lw	ra,36(sp)
 390353c:	8fb10020 	lw	s1,32(sp)
 3903540:	8fb0001c 	lw	s0,28(sp)
 3903544:	27392e3c 	addiu	t9,t9,11836
 3903548:	03200008 	jr	t9
 390354c:	27bd0028 	addiu	sp,sp,40
 3903550:	0320f809 	jalr	t9
 3903554:	24040040 	li	a0,64
 3903558:	00002821 	move	a1,zero
 390355c:	8fbc0010 	lw	gp,16(sp)
 3903560:	24060040 	li	a2,64
 3903564:	00402021 	move	a0,v0
 3903568:	8f918124 	lw	s1,-32476(gp)
 390356c:	8f998038 	lw	t9,-32712(gp)
 3903570:	0320f809 	jalr	t9
 3903574:	ae220000 	sw	v0,0(s1)
 3903578:	8fbc0010 	lw	gp,16(sp)
 390357c:	8f9980a4 	lw	t9,-32604(gp)
 3903580:	0320f809 	jalr	t9
 3903584:	26044358 	addiu	a0,s0,17240
 3903588:	26054358 	addiu	a1,s0,17240
 390358c:	8fbc0010 	lw	gp,16(sp)
 3903590:	24042010 	li	a0,8208
 3903594:	8f9980a8 	lw	t9,-32600(gp)
 3903598:	0320f809 	jalr	t9
 390359c:	00403021 	move	a2,v0
 39035a0:	00002821 	move	a1,zero
 39035a4:	14400010 	bnez	v0,39035e8 <nvt_modelext_init+0x17c>
 39035a8:	8fbc0010 	lw	gp,16(sp)
 39035ac:	8c032030 	lw	v1,8240(zero)
 39035b0:	24022000 	li	v0,8192
 39035b4:	24050002 	li	a1,2
 39035b8:	24632000 	addiu	v1,v1,8192
 39035bc:	8c440000 	lw	a0,0(v0)
 39035c0:	50800009 	beqzl	a0,39035e8 <nvt_modelext_init+0x17c>
 39035c4:	00002821 	move	a1,zero
 39035c8:	8c460004 	lw	a2,4(v0)
 39035cc:	50c50006 	beql	a2,a1,39035e8 <nvt_modelext_init+0x17c>
 39035d0:	24450010 	addiu	a1,v0,16
 39035d4:	00441021 	addu	v0,v0,a0
 39035d8:	0043202b 	sltu	a0,v0,v1
 39035dc:	5480fff8 	bnezl	a0,39035c0 <nvt_modelext_init+0x154>
 39035e0:	8c440000 	lw	a0,0(v0)
 39035e4:	00002821 	move	a1,zero
 39035e8:	8f9980ac 	lw	t9,-32596(gp)
 39035ec:	24a50080 	addiu	a1,a1,128
 39035f0:	8e240000 	lw	a0,0(s1)
 39035f4:	0320f809 	jalr	t9
 39035f8:	24060040 	li	a2,64
 39035fc:	8fbc0010 	lw	gp,16(sp)
 3903600:	8f998024 	lw	t9,-32732(gp)
 3903604:	27392e3c 	addiu	t9,t9,11836
 3903608:	0320f809 	jalr	t9
 390360c:	00000000 	nop
 3903610:	00401821 	move	v1,v0
 3903614:	0460000d 	bltz	v1,390364c <nvt_modelext_init+0x1e0>
 3903618:	8fbc0010 	lw	gp,16(sp)
 390361c:	8f998110 	lw	t9,-32496(gp)
 3903620:	24042010 	li	a0,8208
 3903624:	26054358 	addiu	a1,s0,17240
 3903628:	0320f809 	jalr	t9
 390362c:	24060008 	li	a2,8
 3903630:	1040ffb1 	beqz	v0,39034f8 <nvt_modelext_init+0x8c>
 3903634:	8fbc0010 	lw	gp,16(sp)
 3903638:	8f848044 	lw	a0,-32700(gp)
 390363c:	8f998040 	lw	t9,-32704(gp)
 3903640:	0320f809 	jalr	t9
 3903644:	24844f04 	addiu	a0,a0,20228
 3903648:	2402ffff 	li	v0,-1
 390364c:	8fbf0024 	lw	ra,36(sp)
 3903650:	8fb10020 	lw	s1,32(sp)
 3903654:	8fb0001c 	lw	s0,28(sp)
 3903658:	03e00008 	jr	ra
 390365c:	27bd0028 	addiu	sp,sp,40

03903660 <lz_uncompress>:
 3903660:	10c0003b 	beqz	a2,3903750 <lz_uncompress+0xf0>
 3903664:	00000000 	nop
 3903668:	908c0000 	lbu	t4,0(a0)
 390366c:	00001821 	move	v1,zero
 3903670:	24020001 	li	v0,1
 3903674:	240dff80 	li	t5,-128
 3903678:	00823821 	addu	a3,a0,v0
 390367c:	90e70000 	lbu	a3,0(a3)
 3903680:	14ec002c 	bne	a3,t4,3903734 <lz_uncompress+0xd4>
 3903684:	24480001 	addiu	t0,v0,1
 3903688:	00885021 	addu	t2,a0,t0
 390368c:	91470000 	lbu	a3,0(t2)
 3903690:	14e00005 	bnez	a3,39036a8 <lz_uncompress+0x48>
 3903694:	00a33821 	addu	a3,a1,v1
 3903698:	24420002 	addiu	v0,v0,2
 390369c:	a0ec0000 	sb	t4,0(a3)
 39036a0:	10000028 	b	3903744 <lz_uncompress+0xe4>
 39036a4:	24630001 	addiu	v1,v1,1
 39036a8:	00001021 	move	v0,zero
 39036ac:	00004821 	move	t1,zero
 39036b0:	01423821 	addu	a3,t2,v0
 39036b4:	000949c0 	sll	t1,t1,0x7
 39036b8:	24420001 	addiu	v0,v0,1
 39036bc:	90e70000 	lbu	a3,0(a3)
 39036c0:	30eb007f 	andi	t3,a3,0x7f
 39036c4:	00ed3824 	and	a3,a3,t5
 39036c8:	14e0fff9 	bnez	a3,39036b0 <lz_uncompress+0x50>
 39036cc:	01694825 	or	t1,t3,t1
 39036d0:	00484021 	addu	t0,v0,t0
 39036d4:	00001021 	move	v0,zero
 39036d8:	00485021 	addu	t2,v0,t0
 39036dc:	000739c0 	sll	a3,a3,0x7
 39036e0:	008a5021 	addu	t2,a0,t2
 39036e4:	24420001 	addiu	v0,v0,1
 39036e8:	914a0000 	lbu	t2,0(t2)
 39036ec:	314b007f 	andi	t3,t2,0x7f
 39036f0:	014d5024 	and	t2,t2,t5
 39036f4:	1540fff8 	bnez	t2,39036d8 <lz_uncompress+0x78>
 39036f8:	01673825 	or	a3,t3,a3
 39036fc:	00481021 	addu	v0,v0,t0
 3903700:	00673823 	subu	a3,v1,a3
 3903704:	00004021 	move	t0,zero
 3903708:	11090008 	beq	t0,t1,390372c <lz_uncompress+0xcc>
 390370c:	01035021 	addu	t2,t0,v1
 3903710:	01075821 	addu	t3,t0,a3
 3903714:	00aa5021 	addu	t2,a1,t2
 3903718:	00ab5821 	addu	t3,a1,t3
 390371c:	25080001 	addiu	t0,t0,1
 3903720:	916b0000 	lbu	t3,0(t3)
 3903724:	1000fff8 	b	3903708 <lz_uncompress+0xa8>
 3903728:	a14b0000 	sb	t3,0(t2)
 390372c:	10000005 	b	3903744 <lz_uncompress+0xe4>
 3903730:	01401821 	move	v1,t2
 3903734:	00a31021 	addu	v0,a1,v1
 3903738:	24630001 	addiu	v1,v1,1
 390373c:	a0470000 	sb	a3,0(v0)
 3903740:	01001021 	move	v0,t0
 3903744:	0046382b 	sltu	a3,v0,a2
 3903748:	54e0ffcc 	bnezl	a3,390367c <lz_uncompress+0x1c>
 390374c:	00823821 	addu	a3,a0,v0
 3903750:	03e00008 	jr	ra
 3903754:	00000000 	nop

03903758 <get_part>:
 3903758:	3c1c0004 	lui	gp,0x4
 390375c:	279c31a8 	addiu	gp,gp,12712
 3903760:	0399e021 	addu	gp,gp,t9
 3903764:	27bdffc0 	addiu	sp,sp,-64
 3903768:	8f99813c 	lw	t9,-32452(gp)
 390376c:	afbc0010 	sw	gp,16(sp)
 3903770:	afb30038 	sw	s3,56(sp)
 3903774:	00a09821 	move	s3,a1
 3903778:	afb20034 	sw	s2,52(sp)
 390377c:	00c09021 	move	s2,a2
 3903780:	afb10030 	sw	s1,48(sp)
 3903784:	afb0002c 	sw	s0,44(sp)
 3903788:	afbf003c 	sw	ra,60(sp)
 390378c:	0320f809 	jalr	t9
 3903790:	00808821 	move	s1,a0
 3903794:	8fbc0010 	lw	gp,16(sp)
 3903798:	10400007 	beqz	v0,39037b8 <get_part+0x60>
 390379c:	00408021 	move	s0,v0
 39037a0:	8f848044 	lw	a0,-32700(gp)
 39037a4:	8f998040 	lw	t9,-32704(gp)
 39037a8:	0320f809 	jalr	t9
 39037ac:	24844f18 	addiu	a0,a0,20248
 39037b0:	1000000f 	b	39037f0 <get_part+0x98>
 39037b4:	00000000 	nop
 39037b8:	8f998140 	lw	t9,-32448(gp)
 39037bc:	27a5001c 	addiu	a1,sp,28
 39037c0:	27a60020 	addiu	a2,sp,32
 39037c4:	27a70018 	addiu	a3,sp,24
 39037c8:	0320f809 	jalr	t9
 39037cc:	02202021 	move	a0,s1
 39037d0:	8fbc0010 	lw	gp,16(sp)
 39037d4:	10400008 	beqz	v0,39037f8 <get_part+0xa0>
 39037d8:	00408021 	move	s0,v0
 39037dc:	8f848044 	lw	a0,-32700(gp)
 39037e0:	02202821 	move	a1,s1
 39037e4:	8f998040 	lw	t9,-32704(gp)
 39037e8:	0320f809 	jalr	t9
 39037ec:	24844f2c 	addiu	a0,a0,20268
 39037f0:	1000000b 	b	3903820 <get_part+0xc8>
 39037f4:	02001021 	move	v0,s0
 39037f8:	8fa20018 	lw	v0,24(sp)
 39037fc:	8c440018 	lw	a0,24(v0)
 3903800:	8c45001c 	lw	a1,28(v0)
 3903804:	ae640000 	sw	a0,0(s3)
 3903808:	ae650004 	sw	a1,4(s3)
 390380c:	8c430014 	lw	v1,20(v0)
 3903810:	8c420010 	lw	v0,16(v0)
 3903814:	ae430004 	sw	v1,4(s2)
 3903818:	ae420000 	sw	v0,0(s2)
 390381c:	00001021 	move	v0,zero
 3903820:	8fbf003c 	lw	ra,60(sp)
 3903824:	8fb30038 	lw	s3,56(sp)
 3903828:	8fb20034 	lw	s2,52(sp)
 390382c:	8fb10030 	lw	s1,48(sp)
 3903830:	8fb0002c 	lw	s0,44(sp)
 3903834:	03e00008 	jr	ra
 3903838:	27bd0040 	addiu	sp,sp,64

0390383c <nvt_disable_mem_protect>:
 390383c:	3c02c000 	lui	v0,0xc000
 3903840:	ac400060 	sw	zero,96(v0)
 3903844:	03e00008 	jr	ra
 3903848:	00000000 	nop

0390384c <get_nvt_bin_name>:
 390384c:	3c1c0004 	lui	gp,0x4
 3903850:	279c30b4 	addiu	gp,gp,12468
 3903854:	0399e021 	addu	gp,gp,t9
 3903858:	27bdffc8 	addiu	sp,sp,-56
 390385c:	8f9980a4 	lw	t9,-32604(gp)
 3903860:	afb00018 	sw	s0,24(sp)
 3903864:	afb40028 	sw	s4,40(sp)
 3903868:	0080a021 	move	s4,a0
 390386c:	afbc0010 	sw	gp,16(sp)
 3903870:	afbf0034 	sw	ra,52(sp)
 3903874:	afb60030 	sw	s6,48(sp)
 3903878:	afb5002c 	sw	s5,44(sp)
 390387c:	afb30024 	sw	s3,36(sp)
 3903880:	afb20020 	sw	s2,32(sp)
 3903884:	afb1001c 	sw	s1,28(sp)
 3903888:	8f908044 	lw	s0,-32700(gp)
 390388c:	0320f809 	jalr	t9
 3903890:	26044358 	addiu	a0,s0,17240
 3903894:	26054358 	addiu	a1,s0,17240
 3903898:	8fbc0010 	lw	gp,16(sp)
 390389c:	24042010 	li	a0,8208
 39038a0:	00403021 	move	a2,v0
 39038a4:	8f9980a8 	lw	t9,-32600(gp)
 39038a8:	0320f809 	jalr	t9
 39038ac:	00008021 	move	s0,zero
 39038b0:	14400010 	bnez	v0,39038f4 <get_nvt_bin_name+0xa8>
 39038b4:	8fbc0010 	lw	gp,16(sp)
 39038b8:	8c022030 	lw	v0,8240(zero)
 39038bc:	24102000 	li	s0,8192
 39038c0:	24040002 	li	a0,2
 39038c4:	24422000 	addiu	v0,v0,8192
 39038c8:	8e030000 	lw	v1,0(s0)
 39038cc:	50600009 	beqzl	v1,39038f4 <get_nvt_bin_name+0xa8>
 39038d0:	00008021 	move	s0,zero
 39038d4:	8e050004 	lw	a1,4(s0)
 39038d8:	50a40006 	beql	a1,a0,39038f4 <get_nvt_bin_name+0xa8>
 39038dc:	26100010 	addiu	s0,s0,16
 39038e0:	02038021 	addu	s0,s0,v1
 39038e4:	0202182b 	sltu	v1,s0,v0
 39038e8:	5460fff8 	bnezl	v1,39038cc <get_nvt_bin_name+0x80>
 39038ec:	8e030000 	lw	v1,0(s0)
 39038f0:	00008021 	move	s0,zero
 39038f4:	8f928144 	lw	s2,-32444(gp)
 39038f8:	8e510000 	lw	s1,0(s2)
 39038fc:	1620001b 	bnez	s1,390396c <get_nvt_bin_name+0x120>
 3903900:	02409821 	move	s3,s2
 3903904:	8f998148 	lw	t9,-32440(gp)
 3903908:	24040001 	li	a0,1
 390390c:	0320f809 	jalr	t9
 3903910:	2405000f 	li	a1,15
 3903914:	8fbc0010 	lw	gp,16(sp)
 3903918:	14400009 	bnez	v0,3903940 <get_nvt_bin_name+0xf4>
 390391c:	ae420000 	sw	v0,0(s2)
 3903920:	8f848044 	lw	a0,-32700(gp)
 3903924:	8f858044 	lw	a1,-32700(gp)
 3903928:	8f998040 	lw	t9,-32704(gp)
 390392c:	24844f44 	addiu	a0,a0,20292
 3903930:	0320f809 	jalr	t9
 3903934:	24a52d64 	addiu	a1,a1,11620
 3903938:	10000022 	b	39039c4 <get_nvt_bin_name+0x178>
 390393c:	00000000 	nop
 3903940:	8f99814c 	lw	t9,-32436(gp)
 3903944:	26050140 	addiu	a1,s0,320
 3903948:	0320f809 	jalr	t9
 390394c:	00402021 	move	a0,v0
 3903950:	8fbc0010 	lw	gp,16(sp)
 3903954:	8e440000 	lw	a0,0(s2)
 3903958:	8f858044 	lw	a1,-32700(gp)
 390395c:	8f998070 	lw	t9,-32656(gp)
 3903960:	0320f809 	jalr	t9
 3903964:	24a54f6c 	addiu	a1,a1,20332
 3903968:	8fbc0010 	lw	gp,16(sp)
 390396c:	8f958150 	lw	s5,-32432(gp)
 3903970:	8eb10000 	lw	s1,0(s5)
 3903974:	16200027 	bnez	s1,3903a14 <get_nvt_bin_name+0x1c8>
 3903978:	02a09021 	move	s2,s5
 390397c:	8f998148 	lw	t9,-32440(gp)
 3903980:	24040001 	li	a0,1
 3903984:	0320f809 	jalr	t9
 3903988:	2405000f 	li	a1,15
 390398c:	8fbc0010 	lw	gp,16(sp)
 3903990:	1440000e 	bnez	v0,39039cc <get_nvt_bin_name+0x180>
 3903994:	aea20000 	sw	v0,0(s5)
 3903998:	8f848044 	lw	a0,-32700(gp)
 390399c:	8f858044 	lw	a1,-32700(gp)
 39039a0:	8f998040 	lw	t9,-32704(gp)
 39039a4:	24844f44 	addiu	a0,a0,20292
 39039a8:	0320f809 	jalr	t9
 39039ac:	24a52d64 	addiu	a1,a1,11620
 39039b0:	8fbc0010 	lw	gp,16(sp)
 39039b4:	8e640000 	lw	a0,0(s3)
 39039b8:	8f998128 	lw	t9,-32472(gp)
 39039bc:	0320f809 	jalr	t9
 39039c0:	00000000 	nop
 39039c4:	1000003e 	b	3903ac0 <get_nvt_bin_name+0x274>
 39039c8:	8fbf0034 	lw	ra,52(sp)
 39039cc:	8f99814c 	lw	t9,-32436(gp)
 39039d0:	26050140 	addiu	a1,s0,320
 39039d4:	0320f809 	jalr	t9
 39039d8:	00402021 	move	a0,v0
 39039dc:	8fbc0010 	lw	gp,16(sp)
 39039e0:	8eb10000 	lw	s1,0(s5)
 39039e4:	8f9980a4 	lw	t9,-32604(gp)
 39039e8:	0320f809 	jalr	t9
 39039ec:	02202021 	move	a0,s1
 39039f0:	8fbc0010 	lw	gp,16(sp)
 39039f4:	02221021 	addu	v0,s1,v0
 39039f8:	a040ffff 	sb	zero,-1(v0)
 39039fc:	8ea40000 	lw	a0,0(s5)
 3903a00:	8f858044 	lw	a1,-32700(gp)
 3903a04:	8f998070 	lw	t9,-32656(gp)
 3903a08:	0320f809 	jalr	t9
 3903a0c:	24a54f60 	addiu	a1,a1,20320
 3903a10:	8fbc0010 	lw	gp,16(sp)
 3903a14:	8f958154 	lw	s5,-32428(gp)
 3903a18:	8eb10000 	lw	s1,0(s5)
 3903a1c:	1620001f 	bnez	s1,3903a9c <get_nvt_bin_name+0x250>
 3903a20:	02a0b021 	move	s6,s5
 3903a24:	8f998148 	lw	t9,-32440(gp)
 3903a28:	24040001 	li	a0,1
 3903a2c:	0320f809 	jalr	t9
 3903a30:	2405000f 	li	a1,15
 3903a34:	8fbc0010 	lw	gp,16(sp)
 3903a38:	1440000e 	bnez	v0,3903a74 <get_nvt_bin_name+0x228>
 3903a3c:	aea20000 	sw	v0,0(s5)
 3903a40:	8f848044 	lw	a0,-32700(gp)
 3903a44:	8f858044 	lw	a1,-32700(gp)
 3903a48:	8f998040 	lw	t9,-32704(gp)
 3903a4c:	24844f44 	addiu	a0,a0,20292
 3903a50:	0320f809 	jalr	t9
 3903a54:	24a52d64 	addiu	a1,a1,11620
 3903a58:	8fbc0010 	lw	gp,16(sp)
 3903a5c:	8f998128 	lw	t9,-32472(gp)
 3903a60:	0320f809 	jalr	t9
 3903a64:	8e640000 	lw	a0,0(s3)
 3903a68:	8fbc0010 	lw	gp,16(sp)
 3903a6c:	1000ffd2 	b	39039b8 <get_nvt_bin_name+0x16c>
 3903a70:	8e440000 	lw	a0,0(s2)
 3903a74:	8f99814c 	lw	t9,-32436(gp)
 3903a78:	26050140 	addiu	a1,s0,320
 3903a7c:	0320f809 	jalr	t9
 3903a80:	00402021 	move	a0,v0
 3903a84:	8fbc0010 	lw	gp,16(sp)
 3903a88:	8ea40000 	lw	a0,0(s5)
 3903a8c:	8f858044 	lw	a1,-32700(gp)
 3903a90:	8f998070 	lw	t9,-32656(gp)
 3903a94:	0320f809 	jalr	t9
 3903a98:	24a54f68 	addiu	a1,a1,20328
 3903a9c:	24020001 	li	v0,1
 3903aa0:	16820003 	bne	s4,v0,3903ab0 <get_nvt_bin_name+0x264>
 3903aa4:	24020002 	li	v0,2
 3903aa8:	10000004 	b	3903abc <get_nvt_bin_name+0x270>
 3903aac:	8e710000 	lw	s1,0(s3)
 3903ab0:	56820002 	bnel	s4,v0,3903abc <get_nvt_bin_name+0x270>
 3903ab4:	8ed10000 	lw	s1,0(s6)
 3903ab8:	8e510000 	lw	s1,0(s2)
 3903abc:	8fbf0034 	lw	ra,52(sp)
 3903ac0:	02201021 	move	v0,s1
 3903ac4:	8fb60030 	lw	s6,48(sp)
 3903ac8:	8fb5002c 	lw	s5,44(sp)
 3903acc:	8fb40028 	lw	s4,40(sp)
 3903ad0:	8fb30024 	lw	s3,36(sp)
 3903ad4:	8fb20020 	lw	s2,32(sp)
 3903ad8:	8fb1001c 	lw	s1,28(sp)
 3903adc:	8fb00018 	lw	s0,24(sp)
 3903ae0:	03e00008 	jr	ra
 3903ae4:	27bd0038 	addiu	sp,sp,56

03903ae8 <nvt_check_is_fw_update_fw>:
 3903ae8:	3c1c0004 	lui	gp,0x4
 3903aec:	279c2e18 	addiu	gp,gp,11800
 3903af0:	0399e021 	addu	gp,gp,t9
 3903af4:	8f82803c 	lw	v0,-32708(gp)
 3903af8:	8c420000 	lw	v0,0(v0)
 3903afc:	8c420000 	lw	v0,0(v0)
 3903b00:	304200ff 	andi	v0,v0,0xff
 3903b04:	38420001 	xori	v0,v0,0x1
 3903b08:	03e00008 	jr	ra
 3903b0c:	2c420001 	sltiu	v0,v0,1

03903b10 <nvt_board_init>:
 3903b10:	3c1c0004 	lui	gp,0x4
 3903b14:	279c2df0 	addiu	gp,gp,11760
 3903b18:	0399e021 	addu	gp,gp,t9
 3903b1c:	27bdffd8 	addiu	sp,sp,-40
 3903b20:	8f998110 	lw	t9,-32496(gp)
 3903b24:	24042010 	li	a0,8208
 3903b28:	afb0001c 	sw	s0,28(sp)
 3903b2c:	24060008 	li	a2,8
 3903b30:	afbc0010 	sw	gp,16(sp)
 3903b34:	afb10020 	sw	s1,32(sp)
 3903b38:	afbf0024 	sw	ra,36(sp)
 3903b3c:	8f908044 	lw	s0,-32700(gp)
 3903b40:	0320f809 	jalr	t9
 3903b44:	26054358 	addiu	a1,s0,17240
 3903b48:	8fbc0010 	lw	gp,16(sp)
 3903b4c:	10400004 	beqz	v0,3903b60 <nvt_board_init+0x50>
 3903b50:	00408821 	move	s1,v0
 3903b54:	8f848044 	lw	a0,-32700(gp)
 3903b58:	10000053 	b	3903ca8 <nvt_board_init+0x198>
 3903b5c:	24844f04 	addiu	a0,a0,20228
 3903b60:	8f998158 	lw	t9,-32424(gp)
 3903b64:	0320f809 	jalr	t9
 3903b68:	00000000 	nop
 3903b6c:	8fbc0010 	lw	gp,16(sp)
 3903b70:	10400006 	beqz	v0,3903b8c <nvt_board_init+0x7c>
 3903b74:	8f998040 	lw	t9,-32704(gp)
 3903b78:	8f848044 	lw	a0,-32700(gp)
 3903b7c:	0320f809 	jalr	t9
 3903b80:	24844f74 	addiu	a0,a0,20340
 3903b84:	1000005a 	b	3903cf0 <nvt_board_init+0x1e0>
 3903b88:	00000000 	nop
 3903b8c:	8f848044 	lw	a0,-32700(gp)
 3903b90:	0320f809 	jalr	t9
 3903b94:	24844f98 	addiu	a0,a0,20376
 3903b98:	8fbc0010 	lw	gp,16(sp)
 3903b9c:	8f9980a4 	lw	t9,-32604(gp)
 3903ba0:	0320f809 	jalr	t9
 3903ba4:	26044358 	addiu	a0,s0,17240
 3903ba8:	24042010 	li	a0,8208
 3903bac:	8fbc0010 	lw	gp,16(sp)
 3903bb0:	26054358 	addiu	a1,s0,17240
 3903bb4:	8f9980a8 	lw	t9,-32600(gp)
 3903bb8:	0320f809 	jalr	t9
 3903bbc:	00403021 	move	a2,v0
 3903bc0:	14400013 	bnez	v0,3903c10 <nvt_board_init+0x100>
 3903bc4:	8fbc0010 	lw	gp,16(sp)
 3903bc8:	8c032030 	lw	v1,8240(zero)
 3903bcc:	24022000 	li	v0,8192
 3903bd0:	24050003 	li	a1,3
 3903bd4:	24632000 	addiu	v1,v1,8192
 3903bd8:	8c440000 	lw	a0,0(v0)
 3903bdc:	5080000d 	beqzl	a0,3903c14 <nvt_board_init+0x104>
 3903be0:	8f848044 	lw	a0,-32700(gp)
 3903be4:	8c460004 	lw	a2,4(v0)
 3903be8:	50c50007 	beql	a2,a1,3903c08 <nvt_board_init+0xf8>
 3903bec:	24440010 	addiu	a0,v0,16
 3903bf0:	00441021 	addu	v0,v0,a0
 3903bf4:	0043202b 	sltu	a0,v0,v1
 3903bf8:	5480fff8 	bnezl	a0,3903bdc <nvt_board_init+0xcc>
 3903bfc:	8c440000 	lw	a0,0(v0)
 3903c00:	10000004 	b	3903c14 <nvt_board_init+0x104>
 3903c04:	8f848044 	lw	a0,-32700(gp)
 3903c08:	1480002c 	bnez	a0,3903cbc <nvt_board_init+0x1ac>
 3903c0c:	3c061702 	lui	a2,0x1702
 3903c10:	8f848044 	lw	a0,-32700(gp)
 3903c14:	10000024 	b	3903ca8 <nvt_board_init+0x198>
 3903c18:	24844fa8 	addiu	a0,a0,20392
 3903c1c:	0320f809 	jalr	t9
 3903c20:	00000000 	nop
 3903c24:	8fbc0010 	lw	gp,16(sp)
 3903c28:	8f848044 	lw	a0,-32700(gp)
 3903c2c:	8f998040 	lw	t9,-32704(gp)
 3903c30:	0320f809 	jalr	t9
 3903c34:	24845000 	addiu	a0,a0,20480
 3903c38:	8fbc0010 	lw	gp,16(sp)
 3903c3c:	8f9980a4 	lw	t9,-32604(gp)
 3903c40:	0320f809 	jalr	t9
 3903c44:	26044358 	addiu	a0,s0,17240
 3903c48:	24042010 	li	a0,8208
 3903c4c:	8fbc0010 	lw	gp,16(sp)
 3903c50:	26054358 	addiu	a1,s0,17240
 3903c54:	8f9980a8 	lw	t9,-32600(gp)
 3903c58:	0320f809 	jalr	t9
 3903c5c:	00403021 	move	a2,v0
 3903c60:	1440000f 	bnez	v0,3903ca0 <nvt_board_init+0x190>
 3903c64:	8fbc0010 	lw	gp,16(sp)
 3903c68:	8c032030 	lw	v1,8240(zero)
 3903c6c:	24022000 	li	v0,8192
 3903c70:	24050006 	li	a1,6
 3903c74:	24632000 	addiu	v1,v1,8192
 3903c78:	8c440000 	lw	a0,0(v0)
 3903c7c:	50800009 	beqzl	a0,3903ca4 <nvt_board_init+0x194>
 3903c80:	8f848044 	lw	a0,-32700(gp)
 3903c84:	8c460004 	lw	a2,4(v0)
 3903c88:	50c5001b 	beql	a2,a1,3903cf8 <nvt_board_init+0x1e8>
 3903c8c:	24440010 	addiu	a0,v0,16
 3903c90:	00441021 	addu	v0,v0,a0
 3903c94:	0043202b 	sltu	a0,v0,v1
 3903c98:	5480fff8 	bnezl	a0,3903c7c <nvt_board_init+0x16c>
 3903c9c:	8c440000 	lw	a0,0(v0)
 3903ca0:	8f848044 	lw	a0,-32700(gp)
 3903ca4:	2484500c 	addiu	a0,a0,20492
 3903ca8:	8f998040 	lw	t9,-32704(gp)
 3903cac:	0320f809 	jalr	t9
 3903cb0:	00000000 	nop
 3903cb4:	1000000a 	b	3903ce0 <nvt_board_init+0x1d0>
 3903cb8:	00000000 	nop
 3903cbc:	8c45000c 	lw	a1,12(v0)
 3903cc0:	24c61614 	addiu	a2,a2,5652
 3903cc4:	10a6ffd5 	beq	a1,a2,3903c1c <nvt_board_init+0x10c>
 3903cc8:	8f99815c 	lw	t9,-32420(gp)
 3903ccc:	8f848044 	lw	a0,-32700(gp)
 3903cd0:	24844fc4 	addiu	a0,a0,20420
 3903cd4:	8f998040 	lw	t9,-32704(gp)
 3903cd8:	0320f809 	jalr	t9
 3903cdc:	00000000 	nop
 3903ce0:	1000008c 	b	3903f14 <nvt_board_init+0x404>
 3903ce4:	2411ffff 	li	s1,-1
 3903ce8:	0320f809 	jalr	t9
 3903cec:	00000000 	nop
 3903cf0:	10000089 	b	3903f18 <nvt_board_init+0x408>
 3903cf4:	8fbf0024 	lw	ra,36(sp)
 3903cf8:	1080ffe9 	beqz	a0,3903ca0 <nvt_board_init+0x190>
 3903cfc:	3c061606 	lui	a2,0x1606
 3903d00:	8c45000c 	lw	a1,12(v0)
 3903d04:	24c62414 	addiu	a2,a2,9236
 3903d08:	10a60004 	beq	a1,a2,3903d1c <nvt_board_init+0x20c>
 3903d0c:	8f998160 	lw	t9,-32416(gp)
 3903d10:	8f848044 	lw	a0,-32700(gp)
 3903d14:	1000ffef 	b	3903cd4 <nvt_board_init+0x1c4>
 3903d18:	24845028 	addiu	a0,a0,20520
 3903d1c:	0320f809 	jalr	t9
 3903d20:	8c450008 	lw	a1,8(v0)
 3903d24:	8fbc0010 	lw	gp,16(sp)
 3903d28:	8f848044 	lw	a0,-32700(gp)
 3903d2c:	8f998040 	lw	t9,-32704(gp)
 3903d30:	0320f809 	jalr	t9
 3903d34:	24845064 	addiu	a0,a0,20580
 3903d38:	8fbc0010 	lw	gp,16(sp)
 3903d3c:	8f9980a4 	lw	t9,-32604(gp)
 3903d40:	0320f809 	jalr	t9
 3903d44:	26044358 	addiu	a0,s0,17240
 3903d48:	24042010 	li	a0,8208
 3903d4c:	8fbc0010 	lw	gp,16(sp)
 3903d50:	26054358 	addiu	a1,s0,17240
 3903d54:	8f9980a8 	lw	t9,-32600(gp)
 3903d58:	0320f809 	jalr	t9
 3903d5c:	00403021 	move	a2,v0
 3903d60:	14400013 	bnez	v0,3903db0 <nvt_board_init+0x2a0>
 3903d64:	8fbc0010 	lw	gp,16(sp)
 3903d68:	8c032030 	lw	v1,8240(zero)
 3903d6c:	24022000 	li	v0,8192
 3903d70:	24050004 	li	a1,4
 3903d74:	24632000 	addiu	v1,v1,8192
 3903d78:	8c440000 	lw	a0,0(v0)
 3903d7c:	5080000d 	beqzl	a0,3903db4 <nvt_board_init+0x2a4>
 3903d80:	8f848044 	lw	a0,-32700(gp)
 3903d84:	8c460004 	lw	a2,4(v0)
 3903d88:	50c50007 	beql	a2,a1,3903da8 <nvt_board_init+0x298>
 3903d8c:	24430010 	addiu	v1,v0,16
 3903d90:	00441021 	addu	v0,v0,a0
 3903d94:	0043202b 	sltu	a0,v0,v1
 3903d98:	5480fff8 	bnezl	a0,3903d7c <nvt_board_init+0x26c>
 3903d9c:	8c440000 	lw	a0,0(v0)
 3903da0:	10000004 	b	3903db4 <nvt_board_init+0x2a4>
 3903da4:	8f848044 	lw	a0,-32700(gp)
 3903da8:	14600004 	bnez	v1,3903dbc <nvt_board_init+0x2ac>
 3903dac:	3c061702 	lui	a2,0x1702
 3903db0:	8f848044 	lw	a0,-32700(gp)
 3903db4:	1000ffbc 	b	3903ca8 <nvt_board_init+0x198>
 3903db8:	24845074 	addiu	a0,a0,20596
 3903dbc:	8c45000c 	lw	a1,12(v0)
 3903dc0:	24c61417 	addiu	a2,a2,5143
 3903dc4:	14a60029 	bne	a1,a2,3903e6c <nvt_board_init+0x35c>
 3903dc8:	8f998164 	lw	t9,-32412(gp)
 3903dcc:	00002021 	move	a0,zero
 3903dd0:	0320f809 	jalr	t9
 3903dd4:	00602821 	move	a1,v1
 3903dd8:	8fbc0010 	lw	gp,16(sp)
 3903ddc:	8f9980a4 	lw	t9,-32604(gp)
 3903de0:	0320f809 	jalr	t9
 3903de4:	26044358 	addiu	a0,s0,17240
 3903de8:	24042010 	li	a0,8208
 3903dec:	8fbc0010 	lw	gp,16(sp)
 3903df0:	26054358 	addiu	a1,s0,17240
 3903df4:	8f9980a8 	lw	t9,-32600(gp)
 3903df8:	0320f809 	jalr	t9
 3903dfc:	00403021 	move	a2,v0
 3903e00:	14400013 	bnez	v0,3903e50 <nvt_board_init+0x340>
 3903e04:	8fbc0010 	lw	gp,16(sp)
 3903e08:	8c032030 	lw	v1,8240(zero)
 3903e0c:	24022000 	li	v0,8192
 3903e10:	24050005 	li	a1,5
 3903e14:	24632000 	addiu	v1,v1,8192
 3903e18:	8c440000 	lw	a0,0(v0)
 3903e1c:	5080000d 	beqzl	a0,3903e54 <nvt_board_init+0x344>
 3903e20:	8f848044 	lw	a0,-32700(gp)
 3903e24:	8c460004 	lw	a2,4(v0)
 3903e28:	50c50007 	beql	a2,a1,3903e48 <nvt_board_init+0x338>
 3903e2c:	24430010 	addiu	v1,v0,16
 3903e30:	00441021 	addu	v0,v0,a0
 3903e34:	0043202b 	sltu	a0,v0,v1
 3903e38:	5480fff8 	bnezl	a0,3903e1c <nvt_board_init+0x30c>
 3903e3c:	8c440000 	lw	a0,0(v0)
 3903e40:	10000004 	b	3903e54 <nvt_board_init+0x344>
 3903e44:	8f848044 	lw	a0,-32700(gp)
 3903e48:	14600004 	bnez	v1,3903e5c <nvt_board_init+0x34c>
 3903e4c:	3c061607 	lui	a2,0x1607
 3903e50:	8f848044 	lw	a0,-32700(gp)
 3903e54:	1000ff94 	b	3903ca8 <nvt_board_init+0x198>
 3903e58:	248450e0 	addiu	a0,a0,20704
 3903e5c:	8c45000c 	lw	a1,12(v0)
 3903e60:	24c62117 	addiu	a2,a2,8471
 3903e64:	10a60004 	beq	a1,a2,3903e78 <nvt_board_init+0x368>
 3903e68:	8f9980a4 	lw	t9,-32604(gp)
 3903e6c:	8f848044 	lw	a0,-32700(gp)
 3903e70:	1000ff98 	b	3903cd4 <nvt_board_init+0x1c4>
 3903e74:	248450a4 	addiu	a0,a0,20644
 3903e78:	0320f809 	jalr	t9
 3903e7c:	26044358 	addiu	a0,s0,17240
 3903e80:	24042010 	li	a0,8208
 3903e84:	8fbc0010 	lw	gp,16(sp)
 3903e88:	26054358 	addiu	a1,s0,17240
 3903e8c:	8f9980a8 	lw	t9,-32600(gp)
 3903e90:	0320f809 	jalr	t9
 3903e94:	00403021 	move	a2,v0
 3903e98:	8fbc0010 	lw	gp,16(sp)
 3903e9c:	14400013 	bnez	v0,3903eec <nvt_board_init+0x3dc>
 3903ea0:	00408821 	move	s1,v0
 3903ea4:	8c022030 	lw	v0,8240(zero)
 3903ea8:	24032000 	li	v1,8192
 3903eac:	24050007 	li	a1,7
 3903eb0:	24422000 	addiu	v0,v0,8192
 3903eb4:	8c640000 	lw	a0,0(v1)
 3903eb8:	5080000d 	beqzl	a0,3903ef0 <nvt_board_init+0x3e0>
 3903ebc:	8f848044 	lw	a0,-32700(gp)
 3903ec0:	8c660004 	lw	a2,4(v1)
 3903ec4:	50c50007 	beql	a2,a1,3903ee4 <nvt_board_init+0x3d4>
 3903ec8:	24620010 	addiu	v0,v1,16
 3903ecc:	00641821 	addu	v1,v1,a0
 3903ed0:	0062202b 	sltu	a0,v1,v0
 3903ed4:	5480fff8 	bnezl	a0,3903eb8 <nvt_board_init+0x3a8>
 3903ed8:	8c640000 	lw	a0,0(v1)
 3903edc:	10000004 	b	3903ef0 <nvt_board_init+0x3e0>
 3903ee0:	8f848044 	lw	a0,-32700(gp)
 3903ee4:	14400004 	bnez	v0,3903ef8 <nvt_board_init+0x3e8>
 3903ee8:	3c061703 	lui	a2,0x1703
 3903eec:	8f848044 	lw	a0,-32700(gp)
 3903ef0:	1000ff6d 	b	3903ca8 <nvt_board_init+0x198>
 3903ef4:	24844eb4 	addiu	a0,a0,20148
 3903ef8:	8c65000c 	lw	a1,12(v1)
 3903efc:	24c62309 	addiu	a2,a2,8969
 3903f00:	10a6ff79 	beq	a1,a2,3903ce8 <nvt_board_init+0x1d8>
 3903f04:	8f998168 	lw	t9,-32408(gp)
 3903f08:	8f848044 	lw	a0,-32700(gp)
 3903f0c:	1000ff71 	b	3903cd4 <nvt_board_init+0x1c4>
 3903f10:	2484510c 	addiu	a0,a0,20748
 3903f14:	8fbf0024 	lw	ra,36(sp)
 3903f18:	02201021 	move	v0,s1
 3903f1c:	8fb10020 	lw	s1,32(sp)
 3903f20:	8fb0001c 	lw	s0,28(sp)
 3903f24:	03e00008 	jr	ra
 3903f28:	27bd0028 	addiu	sp,sp,40

03903f2c <nvt_fs_set_blk_dev>:
 3903f2c:	3c1c0004 	lui	gp,0x4
 3903f30:	279c29d4 	addiu	gp,gp,10708
 3903f34:	0399e021 	addu	gp,gp,t9
 3903f38:	27bdffd8 	addiu	sp,sp,-40
 3903f3c:	8f99816c 	lw	t9,-32404(gp)
 3903f40:	24060001 	li	a2,1
 3903f44:	afb10020 	sw	s1,32(sp)
 3903f48:	afb0001c 	sw	s0,28(sp)
 3903f4c:	afbc0010 	sw	gp,16(sp)
 3903f50:	afbf0024 	sw	ra,36(sp)
 3903f54:	8f908044 	lw	s0,-32700(gp)
 3903f58:	8f918044 	lw	s1,-32700(gp)
 3903f5c:	26045150 	addiu	a0,s0,20816
 3903f60:	0320f809 	jalr	t9
 3903f64:	26255154 	addiu	a1,s1,20820
 3903f68:	14400003 	bnez	v0,3903f78 <nvt_fs_set_blk_dev+0x4c>
 3903f6c:	8fbc0010 	lw	gp,16(sp)
 3903f70:	1000001c 	b	3903fe4 <nvt_fs_set_blk_dev+0xb8>
 3903f74:	00001021 	move	v0,zero
 3903f78:	8f99816c 	lw	t9,-32404(gp)
 3903f7c:	26045150 	addiu	a0,s0,20816
 3903f80:	26255154 	addiu	a1,s1,20820
 3903f84:	0320f809 	jalr	t9
 3903f88:	24060004 	li	a2,4
 3903f8c:	1040fff8 	beqz	v0,3903f70 <nvt_fs_set_blk_dev+0x44>
 3903f90:	8fbc0010 	lw	gp,16(sp)
 3903f94:	8f918044 	lw	s1,-32700(gp)
 3903f98:	26045150 	addiu	a0,s0,20816
 3903f9c:	8f99816c 	lw	t9,-32404(gp)
 3903fa0:	24060001 	li	a2,1
 3903fa4:	0320f809 	jalr	t9
 3903fa8:	26255158 	addiu	a1,s1,20824
 3903fac:	1040fff0 	beqz	v0,3903f70 <nvt_fs_set_blk_dev+0x44>
 3903fb0:	8fbc0010 	lw	gp,16(sp)
 3903fb4:	8f99816c 	lw	t9,-32404(gp)
 3903fb8:	26045150 	addiu	a0,s0,20816
 3903fbc:	26255158 	addiu	a1,s1,20824
 3903fc0:	0320f809 	jalr	t9
 3903fc4:	24060004 	li	a2,4
 3903fc8:	1040ffe9 	beqz	v0,3903f70 <nvt_fs_set_blk_dev+0x44>
 3903fcc:	8fbc0010 	lw	gp,16(sp)
 3903fd0:	8f848044 	lw	a0,-32700(gp)
 3903fd4:	8f998040 	lw	t9,-32704(gp)
 3903fd8:	0320f809 	jalr	t9
 3903fdc:	2484515c 	addiu	a0,a0,20828
 3903fe0:	2402ffff 	li	v0,-1
 3903fe4:	8fbf0024 	lw	ra,36(sp)
 3903fe8:	8fb10020 	lw	s1,32(sp)
 3903fec:	8fb0001c 	lw	s0,28(sp)
 3903ff0:	03e00008 	jr	ra
 3903ff4:	27bd0028 	addiu	sp,sp,40

03903ff8 <nvt_fw_load_tbin>:
 3903ff8:	3c1c0004 	lui	gp,0x4
 3903ffc:	279c2908 	addiu	gp,gp,10504
 3904000:	0399e021 	addu	gp,gp,t9
 3904004:	27bdffd8 	addiu	sp,sp,-40
 3904008:	8f998170 	lw	t9,-32400(gp)
 390400c:	afbc0010 	sw	gp,16(sp)
 3904010:	afbf0024 	sw	ra,36(sp)
 3904014:	afb20020 	sw	s2,32(sp)
 3904018:	afb1001c 	sw	s1,28(sp)
 390401c:	0320f809 	jalr	t9
 3904020:	afb00018 	sw	s0,24(sp)
 3904024:	10400003 	beqz	v0,3904034 <nvt_fw_load_tbin+0x3c>
 3904028:	8fbc0010 	lw	gp,16(sp)
 390402c:	10000037 	b	390410c <nvt_fw_load_tbin+0x114>
 3904030:	2410fffe 	li	s0,-2
 3904034:	8f99807c 	lw	t9,-32644(gp)
 3904038:	24040002 	li	a0,2
 390403c:	0320f809 	jalr	t9
 3904040:	2410fffc 	li	s0,-4
 3904044:	8fbc0010 	lw	gp,16(sp)
 3904048:	8f998174 	lw	t9,-32396(gp)
 390404c:	0320f809 	jalr	t9
 3904050:	00402021 	move	a0,v0
 3904054:	1040002d 	beqz	v0,390410c <nvt_fw_load_tbin+0x114>
 3904058:	8fbc0010 	lw	gp,16(sp)
 390405c:	8f998170 	lw	t9,-32400(gp)
 3904060:	0320f809 	jalr	t9
 3904064:	00000000 	nop
 3904068:	8fbc0010 	lw	gp,16(sp)
 390406c:	1440ffef 	bnez	v0,390402c <nvt_fw_load_tbin+0x34>
 3904070:	00408021 	move	s0,v0
 3904074:	8f99807c 	lw	t9,-32644(gp)
 3904078:	24040002 	li	a0,2
 390407c:	0320f809 	jalr	t9
 3904080:	3c120290 	lui	s2,0x290
 3904084:	26451000 	addiu	a1,s2,4096
 3904088:	8fbc0010 	lw	gp,16(sp)
 390408c:	00003021 	move	a2,zero
 3904090:	00003821 	move	a3,zero
 3904094:	8f998178 	lw	t9,-32392(gp)
 3904098:	0320f809 	jalr	t9
 390409c:	00402021 	move	a0,v0
 39040a0:	24040002 	li	a0,2
 39040a4:	8fbc0010 	lw	gp,16(sp)
 39040a8:	00408821 	move	s1,v0
 39040ac:	1c40000d 	bgtz	v0,39040e4 <nvt_fw_load_tbin+0xec>
 39040b0:	8f99807c 	lw	t9,-32644(gp)
 39040b4:	0320f809 	jalr	t9
 39040b8:	2410fffd 	li	s0,-3
 39040bc:	36461000 	ori	a2,s2,0x1000
 39040c0:	8fbc0010 	lw	gp,16(sp)
 39040c4:	00402821 	move	a1,v0
 39040c8:	02203821 	move	a3,s1
 39040cc:	8f848044 	lw	a0,-32700(gp)
 39040d0:	8f998040 	lw	t9,-32704(gp)
 39040d4:	0320f809 	jalr	t9
 39040d8:	2484517c 	addiu	a0,a0,20860
 39040dc:	1000000c 	b	3904110 <nvt_fw_load_tbin+0x118>
 39040e0:	8fbf0024 	lw	ra,36(sp)
 39040e4:	0320f809 	jalr	t9
 39040e8:	00000000 	nop
 39040ec:	36461000 	ori	a2,s2,0x1000
 39040f0:	8fbc0010 	lw	gp,16(sp)
 39040f4:	00402821 	move	a1,v0
 39040f8:	02203821 	move	a3,s1
 39040fc:	8f848044 	lw	a0,-32700(gp)
 3904100:	8f998040 	lw	t9,-32704(gp)
 3904104:	0320f809 	jalr	t9
 3904108:	2484519c 	addiu	a0,a0,20892
 390410c:	8fbf0024 	lw	ra,36(sp)
 3904110:	02001021 	move	v0,s0
 3904114:	8fb20020 	lw	s2,32(sp)
 3904118:	8fb1001c 	lw	s1,28(sp)
 390411c:	8fb00018 	lw	s0,24(sp)
 3904120:	03e00008 	jr	ra
 3904124:	27bd0028 	addiu	sp,sp,40

03904128 <nvt_get_cpu_os_type>:
 3904128:	3c1c0004 	lui	gp,0x4
 390412c:	279c27d8 	addiu	gp,gp,10200
 3904130:	0399e021 	addu	gp,gp,t9
 3904134:	27bdffe0 	addiu	sp,sp,-32
 3904138:	8f9980a4 	lw	t9,-32604(gp)
 390413c:	afb00018 	sw	s0,24(sp)
 3904140:	afbc0010 	sw	gp,16(sp)
 3904144:	afbf001c 	sw	ra,28(sp)
 3904148:	8f908044 	lw	s0,-32700(gp)
 390414c:	0320f809 	jalr	t9
 3904150:	26044358 	addiu	a0,s0,17240
 3904154:	24042010 	li	a0,8208
 3904158:	8fbc0010 	lw	gp,16(sp)
 390415c:	26054358 	addiu	a1,s0,17240
 3904160:	8f9980a8 	lw	t9,-32600(gp)
 3904164:	0320f809 	jalr	t9
 3904168:	00403021 	move	a2,v0
 390416c:	1440000e 	bnez	v0,39041a8 <nvt_get_cpu_os_type+0x80>
 3904170:	24022000 	li	v0,8192
 3904174:	8c032030 	lw	v1,8240(zero)
 3904178:	24050007 	li	a1,7
 390417c:	24632000 	addiu	v1,v1,8192
 3904180:	8c440000 	lw	a0,0(v0)
 3904184:	10800008 	beqz	a0,39041a8 <nvt_get_cpu_os_type+0x80>
 3904188:	00000000 	nop
 390418c:	8c460004 	lw	a2,4(v0)
 3904190:	50c50007 	beql	a2,a1,39041b0 <nvt_get_cpu_os_type+0x88>
 3904194:	8c440030 	lw	a0,48(v0)
 3904198:	00441021 	addu	v0,v0,a0
 390419c:	0043202b 	sltu	a0,v0,v1
 39041a0:	5480fff8 	bnezl	a0,3904184 <nvt_get_cpu_os_type+0x5c>
 39041a4:	8c440000 	lw	a0,0(v0)
 39041a8:	8c020020 	lw	v0,32(zero)
 39041ac:	00000034 	teq	zero,zero
 39041b0:	14800003 	bnez	a0,39041c0 <nvt_get_cpu_os_type+0x98>
 39041b4:	8c430050 	lw	v1,80(v0)
 39041b8:	10600004 	beqz	v1,39041cc <nvt_get_cpu_os_type+0xa4>
 39041bc:	24020002 	li	v0,2
 39041c0:	24040004 	li	a0,4
 39041c4:	24020003 	li	v0,3
 39041c8:	0083100a 	movz	v0,a0,v1
 39041cc:	8fbf001c 	lw	ra,28(sp)
 39041d0:	8fb00018 	lw	s0,24(sp)
 39041d4:	03e00008 	jr	ra
 39041d8:	27bd0020 	addiu	sp,sp,32

039041dc <nvt_get_32bits_data>:
 39041dc:	30a500ff 	andi	a1,a1,0xff
 39041e0:	50a00010 	beqzl	a1,3904224 <nvt_get_32bits_data+0x48>
 39041e4:	90820000 	lbu	v0,0(a0)
 39041e8:	30820003 	andi	v0,a0,0x3
 39041ec:	1040000b 	beqz	v0,390421c <nvt_get_32bits_data+0x40>
 39041f0:	00000000 	nop
 39041f4:	90850001 	lbu	a1,1(a0)
 39041f8:	90830002 	lbu	v1,2(a0)
 39041fc:	90860000 	lbu	a2,0(a0)
 3904200:	00052a00 	sll	a1,a1,0x8
 3904204:	00031c00 	sll	v1,v1,0x10
 3904208:	00a31025 	or	v0,a1,v1
 390420c:	00461825 	or	v1,v0,a2
 3904210:	90820003 	lbu	v0,3(a0)
 3904214:	1000000b 	b	3904244 <nvt_get_32bits_data+0x68>
 3904218:	00021600 	sll	v0,v0,0x18
 390421c:	03e00008 	jr	ra
 3904220:	8c820000 	lw	v0,0(a0)
 3904224:	90830003 	lbu	v1,3(a0)
 3904228:	00022e00 	sll	a1,v0,0x18
 390422c:	90820001 	lbu	v0,1(a0)
 3904230:	00021400 	sll	v0,v0,0x10
 3904234:	00a21025 	or	v0,a1,v0
 3904238:	00431825 	or	v1,v0,v1
 390423c:	90820002 	lbu	v0,2(a0)
 3904240:	00021200 	sll	v0,v0,0x8
 3904244:	03e00008 	jr	ra
 3904248:	00621025 	or	v0,v1,v0

0390424c <nvtpack_get_uitron_offset>:
 390424c:	3c1c0004 	lui	gp,0x4
 3904250:	279c26b4 	addiu	gp,gp,9908
 3904254:	0399e021 	addu	gp,gp,t9
 3904258:	27bdffd8 	addiu	sp,sp,-40
 390425c:	8f998038 	lw	t9,-32712(gp)
 3904260:	24060008 	li	a2,8
 3904264:	afb00018 	sw	s0,24(sp)
 3904268:	afb20020 	sw	s2,32(sp)
 390426c:	00a09021 	move	s2,a1
 3904270:	afb1001c 	sw	s1,28(sp)
 3904274:	afbc0010 	sw	gp,16(sp)
 3904278:	afbf0024 	sw	ra,36(sp)
 390427c:	8c900000 	lw	s0,0(a0)
 3904280:	8c910004 	lw	s1,4(a0)
 3904284:	00a02021 	move	a0,a1
 3904288:	0320f809 	jalr	t9
 390428c:	00002821 	move	a1,zero
 3904290:	3c02314c 	lui	v0,0x314c
 3904294:	8e030000 	lw	v1,0(s0)
 3904298:	02118821 	addu	s1,s0,s1
 390429c:	24424342 	addiu	v0,v0,17218
 39042a0:	14620012 	bne	v1,v0,39042ec <nvtpack_get_uitron_offset+0xa0>
 39042a4:	8fbc0010 	lw	gp,16(sp)
 39042a8:	8e02000c 	lw	v0,12(s0)
 39042ac:	ae500000 	sw	s0,0(s2)
 39042b0:	7c0210a0 	wsbh	v0,v0
 39042b4:	00221402 	ror	v0,v0,0x10
 39042b8:	24420010 	addiu	v0,v0,16
 39042bc:	02028021 	addu	s0,s0,v0
 39042c0:	ae420004 	sw	v0,4(s2)
 39042c4:	0230802b 	sltu	s0,s1,s0
 39042c8:	12000019 	beqz	s0,3904330 <nvtpack_get_uitron_offset+0xe4>
 39042cc:	00001021 	move	v0,zero
 39042d0:	8f848044 	lw	a0,-32700(gp)
 39042d4:	2405fffa 	li	a1,-6
 39042d8:	8f998040 	lw	t9,-32704(gp)
 39042dc:	0320f809 	jalr	t9
 39042e0:	248451c4 	addiu	a0,a0,20932
 39042e4:	10000012 	b	3904330 <nvtpack_get_uitron_offset+0xe4>
 39042e8:	2402fffa 	li	v0,-6
 39042ec:	8f858044 	lw	a1,-32700(gp)
 39042f0:	26040050 	addiu	a0,s0,80
 39042f4:	8f998110 	lw	t9,-32496(gp)
 39042f8:	24060003 	li	a2,3
 39042fc:	0320f809 	jalr	t9
 3904300:	24a551d4 	addiu	a1,a1,20948
 3904304:	14400004 	bnez	v0,3904318 <nvtpack_get_uitron_offset+0xcc>
 3904308:	8fbc0010 	lw	gp,16(sp)
 390430c:	8e020068 	lw	v0,104(s0)
 3904310:	1000ffea 	b	39042bc <nvtpack_get_uitron_offset+0x70>
 3904314:	ae500000 	sw	s0,0(s2)
 3904318:	8f848044 	lw	a0,-32700(gp)
 390431c:	2405fffe 	li	a1,-2
 3904320:	8f998040 	lw	t9,-32704(gp)
 3904324:	0320f809 	jalr	t9
 3904328:	248451c4 	addiu	a0,a0,20932
 390432c:	2402fffe 	li	v0,-2
 3904330:	8fbf0024 	lw	ra,36(sp)
 3904334:	8fb20020 	lw	s2,32(sp)
 3904338:	8fb1001c 	lw	s1,28(sp)
 390433c:	8fb00018 	lw	s0,24(sp)
 3904340:	03e00008 	jr	ra
 3904344:	27bd0028 	addiu	sp,sp,40

03904348 <nvtpack_calc_nvt_sum>:
 3904348:	8c860000 	lw	a2,0(a0)
 390434c:	00001021 	move	v0,zero
 3904350:	8c840004 	lw	a0,4(a0)
 3904354:	00001821 	move	v1,zero
 3904358:	00042042 	srl	a0,a0,0x1
 390435c:	10640007 	beq	v1,a0,390437c <nvtpack_calc_nvt_sum+0x34>
 3904360:	00032840 	sll	a1,v1,0x1
 3904364:	00c52821 	addu	a1,a2,a1
 3904368:	94a50000 	lhu	a1,0(a1)
 390436c:	00a32821 	addu	a1,a1,v1
 3904370:	24630001 	addiu	v1,v1,1
 3904374:	1000fff9 	b	390435c <nvtpack_calc_nvt_sum+0x14>
 3904378:	00451021 	addu	v0,v0,a1
 390437c:	03e00008 	jr	ra
 3904380:	3042ffff 	andi	v0,v0,0xffff

03904384 <nvtpack_verify>:
 3904384:	3c1c0004 	lui	gp,0x4
 3904388:	279c257c 	addiu	gp,gp,9596
 390438c:	0399e021 	addu	gp,gp,t9
 3904390:	27bdffc0 	addiu	sp,sp,-64
 3904394:	8f998038 	lw	t9,-32712(gp)
 3904398:	24060008 	li	a2,8
 390439c:	afb10028 	sw	s1,40(sp)
 39043a0:	00808821 	move	s1,a0
 39043a4:	afb00024 	sw	s0,36(sp)
 39043a8:	00a02021 	move	a0,a1
 39043ac:	00a08021 	move	s0,a1
 39043b0:	afbc0010 	sw	gp,16(sp)
 39043b4:	00002821 	move	a1,zero
 39043b8:	afbf003c 	sw	ra,60(sp)
 39043bc:	afb50038 	sw	s5,56(sp)
 39043c0:	afb40034 	sw	s4,52(sp)
 39043c4:	afb30030 	sw	s3,48(sp)
 39043c8:	afb2002c 	sw	s2,44(sp)
 39043cc:	afa00018 	sw	zero,24(sp)
 39043d0:	0320f809 	jalr	t9
 39043d4:	afa0001c 	sw	zero,28(sp)
 39043d8:	24060010 	li	a2,16
 39043dc:	8fbc0010 	lw	gp,16(sp)
 39043e0:	8e250000 	lw	a1,0(s1)
 39043e4:	8f848044 	lw	a0,-32700(gp)
 39043e8:	8f9980a8 	lw	t9,-32600(gp)
 39043ec:	0320f809 	jalr	t9
 39043f0:	24842d48 	addiu	a0,a0,11592
 39043f4:	14400013 	bnez	v0,3904444 <nvtpack_verify+0xc0>
 39043f8:	8fbc0010 	lw	gp,16(sp)
 39043fc:	8f99817c 	lw	t9,-32388(gp)
 3904400:	0320f809 	jalr	t9
 3904404:	02202021 	move	a0,s1
 3904408:	10400009 	beqz	v0,3904430 <nvtpack_verify+0xac>
 390440c:	8fbc0010 	lw	gp,16(sp)
 3904410:	8f848044 	lw	a0,-32700(gp)
 3904414:	2405fffd 	li	a1,-3
 3904418:	8f998040 	lw	t9,-32704(gp)
 390441c:	2411fffd 	li	s1,-3
 3904420:	0320f809 	jalr	t9
 3904424:	248451c4 	addiu	a0,a0,20932
 3904428:	10000054 	b	390457c <nvtpack_verify+0x1f8>
 390442c:	8fbf003c 	lw	ra,60(sp)
 3904430:	24020002 	li	v0,2
 3904434:	ae020000 	sw	v0,0(s0)
 3904438:	8e220000 	lw	v0,0(s1)
 390443c:	10000045 	b	3904554 <nvtpack_verify+0x1d0>
 3904440:	8c420018 	lw	v0,24(v0)
 3904444:	8f948044 	lw	s4,-32700(gp)
 3904448:	24060010 	li	a2,16
 390444c:	8e320000 	lw	s2,0(s1)
 3904450:	8f9980a8 	lw	t9,-32600(gp)
 3904454:	26842d38 	addiu	a0,s4,11576
 3904458:	8e330004 	lw	s3,4(s1)
 390445c:	0320f809 	jalr	t9
 3904460:	02402821 	move	a1,s2
 3904464:	10400024 	beqz	v0,39044f8 <nvtpack_verify+0x174>
 3904468:	8fbc0010 	lw	gp,16(sp)
 390446c:	8f998024 	lw	t9,-32732(gp)
 3904470:	27b50018 	addiu	s5,sp,24
 3904474:	02202021 	move	a0,s1
 3904478:	2739424c 	addiu	t9,t9,16972
 390447c:	0320f809 	jalr	t9
 3904480:	02a02821 	move	a1,s5
 3904484:	8fbc0010 	lw	gp,16(sp)
 3904488:	10400009 	beqz	v0,39044b0 <nvtpack_verify+0x12c>
 390448c:	00408821 	move	s1,v0
 3904490:	8f848044 	lw	a0,-32700(gp)
 3904494:	2405fffa 	li	a1,-6
 3904498:	8f998040 	lw	t9,-32704(gp)
 390449c:	2411fffa 	li	s1,-6
 39044a0:	0320f809 	jalr	t9
 39044a4:	248451c4 	addiu	a0,a0,20932
 39044a8:	10000034 	b	390457c <nvtpack_verify+0x1f8>
 39044ac:	8fbf003c 	lw	ra,60(sp)
 39044b0:	8f99817c 	lw	t9,-32388(gp)
 39044b4:	0320f809 	jalr	t9
 39044b8:	02a02021 	move	a0,s5
 39044bc:	1440ffd4 	bnez	v0,3904410 <nvtpack_verify+0x8c>
 39044c0:	8fbc0010 	lw	gp,16(sp)
 39044c4:	8fa2001c 	lw	v0,28(sp)
 39044c8:	02421021 	addu	v0,s2,v0
 39044cc:	02539021 	addu	s2,s2,s3
 39044d0:	0052902b 	sltu	s2,v0,s2
 39044d4:	56400005 	bnezl	s2,39044ec <nvtpack_verify+0x168>
 39044d8:	8e030004 	lw	v1,4(s0)
 39044dc:	24020001 	li	v0,1
 39044e0:	ae020000 	sw	v0,0(s0)
 39044e4:	10000024 	b	3904578 <nvtpack_verify+0x1f4>
 39044e8:	ae020004 	sw	v0,4(s0)
 39044ec:	00409021 	move	s2,v0
 39044f0:	24630001 	addiu	v1,v1,1
 39044f4:	ae030004 	sw	v1,4(s0)
 39044f8:	8f9980a8 	lw	t9,-32600(gp)
 39044fc:	26842d38 	addiu	a0,s4,11576
 3904500:	24060010 	li	a2,16
 3904504:	0320f809 	jalr	t9
 3904508:	02402821 	move	a1,s2
 390450c:	14400014 	bnez	v0,3904560 <nvtpack_verify+0x1dc>
 3904510:	8fbc0010 	lw	gp,16(sp)
 3904514:	8e430018 	lw	v1,24(s2)
 3904518:	2402000c 	li	v0,12
 390451c:	8f99817c 	lw	t9,-32388(gp)
 3904520:	27a40018 	addiu	a0,sp,24
 3904524:	afb20018 	sw	s2,24(sp)
 3904528:	2411fffd 	li	s1,-3
 390452c:	70431002 	mul	v0,v0,v1
 3904530:	2442001c 	addiu	v0,v0,28
 3904534:	0320f809 	jalr	t9
 3904538:	afa2001c 	sw	v0,28(sp)
 390453c:	1440000e 	bnez	v0,3904578 <nvtpack_verify+0x1f4>
 3904540:	24020001 	li	v0,1
 3904544:	8e430018 	lw	v1,24(s2)
 3904548:	ae020000 	sw	v0,0(s0)
 390454c:	8e020004 	lw	v0,4(s0)
 3904550:	00431021 	addu	v0,v0,v1
 3904554:	ae020004 	sw	v0,4(s0)
 3904558:	10000007 	b	3904578 <nvtpack_verify+0x1f4>
 390455c:	00008821 	move	s1,zero
 3904560:	8f848044 	lw	a0,-32700(gp)
 3904564:	2405fffe 	li	a1,-2
 3904568:	8f998040 	lw	t9,-32704(gp)
 390456c:	2411fffe 	li	s1,-2
 3904570:	0320f809 	jalr	t9
 3904574:	248451c4 	addiu	a0,a0,20932
 3904578:	8fbf003c 	lw	ra,60(sp)
 390457c:	02201021 	move	v0,s1
 3904580:	8fb50038 	lw	s5,56(sp)
 3904584:	8fb40034 	lw	s4,52(sp)
 3904588:	8fb30030 	lw	s3,48(sp)
 390458c:	8fb2002c 	lw	s2,44(sp)
 3904590:	8fb10028 	lw	s1,40(sp)
 3904594:	8fb00024 	lw	s0,36(sp)
 3904598:	03e00008 	jr	ra
 390459c:	27bd0040 	addiu	sp,sp,64

039045a0 <nvtpack_get_partition>:
 39045a0:	3c1c0004 	lui	gp,0x4
 39045a4:	279c2360 	addiu	gp,gp,9056
 39045a8:	0399e021 	addu	gp,gp,t9
 39045ac:	27bdffc8 	addiu	sp,sp,-56
 39045b0:	8f998038 	lw	t9,-32712(gp)
 39045b4:	24060008 	li	a2,8
 39045b8:	afb3002c 	sw	s3,44(sp)
 39045bc:	afb20028 	sw	s2,40(sp)
 39045c0:	00a09021 	move	s2,a1
 39045c4:	afb10024 	sw	s1,36(sp)
 39045c8:	00808821 	move	s1,a0
 39045cc:	afbc0010 	sw	gp,16(sp)
 39045d0:	afbf0034 	sw	ra,52(sp)
 39045d4:	afb40030 	sw	s4,48(sp)
 39045d8:	afb00020 	sw	s0,32(sp)
 39045dc:	8c930000 	lw	s3,0(a0)
 39045e0:	00a02021 	move	a0,a1
 39045e4:	0320f809 	jalr	t9
 39045e8:	00002821 	move	a1,zero
 39045ec:	24060010 	li	a2,16
 39045f0:	8fbc0010 	lw	gp,16(sp)
 39045f4:	8e250004 	lw	a1,4(s1)
 39045f8:	8f848044 	lw	a0,-32700(gp)
 39045fc:	8f9980a8 	lw	t9,-32600(gp)
 3904600:	0320f809 	jalr	t9
 3904604:	24842d48 	addiu	a0,a0,11592
 3904608:	8fbc0010 	lw	gp,16(sp)
 390460c:	14400004 	bnez	v0,3904620 <nvtpack_get_partition+0x80>
 3904610:	8e250004 	lw	a1,4(s1)
 3904614:	8ca40018 	lw	a0,24(a1)
 3904618:	10000033 	b	39046e8 <nvtpack_get_partition+0x148>
 390461c:	24a20080 	addiu	v0,a1,128
 3904620:	8f948044 	lw	s4,-32700(gp)
 3904624:	24060010 	li	a2,16
 3904628:	8f9980a8 	lw	t9,-32600(gp)
 390462c:	afa00018 	sw	zero,24(sp)
 3904630:	26842d38 	addiu	a0,s4,11576
 3904634:	0320f809 	jalr	t9
 3904638:	afa0001c 	sw	zero,28(sp)
 390463c:	10400016 	beqz	v0,3904698 <nvtpack_get_partition+0xf8>
 3904640:	8fbc0010 	lw	gp,16(sp)
 3904644:	8f998024 	lw	t9,-32732(gp)
 3904648:	26240004 	addiu	a0,s1,4
 390464c:	2739424c 	addiu	t9,t9,16972
 3904650:	0320f809 	jalr	t9
 3904654:	27a50018 	addiu	a1,sp,24
 3904658:	10400008 	beqz	v0,390467c <nvtpack_get_partition+0xdc>
 390465c:	8fbc0010 	lw	gp,16(sp)
 3904660:	8f848044 	lw	a0,-32700(gp)
 3904664:	2405fffa 	li	a1,-6
 3904668:	8f998040 	lw	t9,-32704(gp)
 390466c:	0320f809 	jalr	t9
 3904670:	248451c4 	addiu	a0,a0,20932
 3904674:	10000032 	b	3904740 <nvtpack_get_partition+0x1a0>
 3904678:	2402fffa 	li	v0,-6
 390467c:	56600007 	bnezl	s3,390469c <nvtpack_get_partition+0xfc>
 3904680:	8e220004 	lw	v0,4(s1)
 3904684:	8fa30018 	lw	v1,24(sp)
 3904688:	ae430000 	sw	v1,0(s2)
 390468c:	8fa3001c 	lw	v1,28(sp)
 3904690:	1000002b 	b	3904740 <nvtpack_get_partition+0x1a0>
 3904694:	ae430004 	sw	v1,4(s2)
 3904698:	8e220004 	lw	v0,4(s1)
 390469c:	26842d38 	addiu	a0,s4,11576
 39046a0:	8fb0001c 	lw	s0,28(sp)
 39046a4:	24060010 	li	a2,16
 39046a8:	8f9980a8 	lw	t9,-32600(gp)
 39046ac:	00508021 	addu	s0,v0,s0
 39046b0:	0320f809 	jalr	t9
 39046b4:	02002821 	move	a1,s0
 39046b8:	14400004 	bnez	v0,39046cc <nvtpack_get_partition+0x12c>
 39046bc:	8fbc0010 	lw	gp,16(sp)
 39046c0:	8e040018 	lw	a0,24(s0)
 39046c4:	10000008 	b	39046e8 <nvtpack_get_partition+0x148>
 39046c8:	2602001c 	addiu	v0,s0,28
 39046cc:	8f848044 	lw	a0,-32700(gp)
 39046d0:	2405fffe 	li	a1,-2
 39046d4:	8f998040 	lw	t9,-32704(gp)
 39046d8:	0320f809 	jalr	t9
 39046dc:	248451c4 	addiu	a0,a0,20932
 39046e0:	10000017 	b	3904740 <nvtpack_get_partition+0x1a0>
 39046e4:	2402fffe 	li	v0,-2
 39046e8:	00001821 	move	v1,zero
 39046ec:	0064282a 	slt	a1,v1,a0
 39046f0:	10a0000d 	beqz	a1,3904728 <nvtpack_get_partition+0x188>
 39046f4:	00402821 	move	a1,v0
 39046f8:	2442000c 	addiu	v0,v0,12
 39046fc:	8c46fffc 	lw	a2,-4(v0)
 3904700:	14d3fffa 	bne	a2,s3,39046ec <nvtpack_get_partition+0x14c>
 3904704:	24630001 	addiu	v1,v1,1
 3904708:	8e220004 	lw	v0,4(s1)
 390470c:	8ca30000 	lw	v1,0(a1)
 3904710:	00431021 	addu	v0,v0,v1
 3904714:	ae420000 	sw	v0,0(s2)
 3904718:	8ca20004 	lw	v0,4(a1)
 390471c:	ae420004 	sw	v0,4(s2)
 3904720:	10000007 	b	3904740 <nvtpack_get_partition+0x1a0>
 3904724:	00001021 	move	v0,zero
 3904728:	8f848044 	lw	a0,-32700(gp)
 390472c:	2405fffc 	li	a1,-4
 3904730:	8f998040 	lw	t9,-32704(gp)
 3904734:	0320f809 	jalr	t9
 3904738:	248451c4 	addiu	a0,a0,20932
 390473c:	2402fffc 	li	v0,-4
 3904740:	8fbf0034 	lw	ra,52(sp)
 3904744:	8fb40030 	lw	s4,48(sp)
 3904748:	8fb3002c 	lw	s3,44(sp)
 390474c:	8fb20028 	lw	s2,40(sp)
 3904750:	8fb10024 	lw	s1,36(sp)
 3904754:	8fb00020 	lw	s0,32(sp)
 3904758:	03e00008 	jr	ra
 390475c:	27bd0038 	addiu	sp,sp,56

03904760 <nvtpack_enum_partition>:
 3904760:	3c1c0004 	lui	gp,0x4
 3904764:	279c21a0 	addiu	gp,gp,8608
 3904768:	0399e021 	addu	gp,gp,t9
 390476c:	27bdffc8 	addiu	sp,sp,-56
 3904770:	8f9980a8 	lw	t9,-32600(gp)
 3904774:	24060010 	li	a2,16
 3904778:	afb10024 	sw	s1,36(sp)
 390477c:	00808821 	move	s1,a0
 3904780:	afbc0010 	sw	gp,16(sp)
 3904784:	afbf0034 	sw	ra,52(sp)
 3904788:	afb40030 	sw	s4,48(sp)
 390478c:	afb3002c 	sw	s3,44(sp)
 3904790:	afb20028 	sw	s2,40(sp)
 3904794:	afb00020 	sw	s0,32(sp)
 3904798:	8f848044 	lw	a0,-32700(gp)
 390479c:	8e250000 	lw	a1,0(s1)
 39047a0:	0320f809 	jalr	t9
 39047a4:	24842d48 	addiu	a0,a0,11592
 39047a8:	8fbc0010 	lw	gp,16(sp)
 39047ac:	14400004 	bnez	v0,39047c0 <nvtpack_enum_partition+0x60>
 39047b0:	8e250000 	lw	a1,0(s1)
 39047b4:	8cb30018 	lw	s3,24(a1)
 39047b8:	10000036 	b	3904894 <nvtpack_enum_partition+0x134>
 39047bc:	24b00080 	addiu	s0,a1,128
 39047c0:	8f908044 	lw	s0,-32700(gp)
 39047c4:	24060010 	li	a2,16
 39047c8:	8f9980a8 	lw	t9,-32600(gp)
 39047cc:	afa00018 	sw	zero,24(sp)
 39047d0:	26042d38 	addiu	a0,s0,11576
 39047d4:	afa0001c 	sw	zero,28(sp)
 39047d8:	0320f809 	jalr	t9
 39047dc:	02009021 	move	s2,s0
 39047e0:	10400018 	beqz	v0,3904844 <nvtpack_enum_partition+0xe4>
 39047e4:	8fbc0010 	lw	gp,16(sp)
 39047e8:	8f998024 	lw	t9,-32732(gp)
 39047ec:	27b00018 	addiu	s0,sp,24
 39047f0:	02202021 	move	a0,s1
 39047f4:	2739424c 	addiu	t9,t9,16972
 39047f8:	0320f809 	jalr	t9
 39047fc:	02002821 	move	a1,s0
 3904800:	10400008 	beqz	v0,3904824 <nvtpack_enum_partition+0xc4>
 3904804:	8fbc0010 	lw	gp,16(sp)
 3904808:	8f848044 	lw	a0,-32700(gp)
 390480c:	2405fffa 	li	a1,-6
 3904810:	8f998040 	lw	t9,-32704(gp)
 3904814:	0320f809 	jalr	t9
 3904818:	248451c4 	addiu	a0,a0,20932
 390481c:	10000039 	b	3904904 <nvtpack_enum_partition+0x1a4>
 3904820:	2402fffa 	li	v0,-6
 3904824:	8e39000c 	lw	t9,12(s1)
 3904828:	13200006 	beqz	t9,3904844 <nvtpack_enum_partition+0xe4>
 390482c:	00002021 	move	a0,zero
 3904830:	8e260008 	lw	a2,8(s1)
 3904834:	0320f809 	jalr	t9
 3904838:	02002821 	move	a1,s0
 390483c:	1440002b 	bnez	v0,39048ec <nvtpack_enum_partition+0x18c>
 3904840:	8fbc0010 	lw	gp,16(sp)
 3904844:	8e220000 	lw	v0,0(s1)
 3904848:	26442d38 	addiu	a0,s2,11576
 390484c:	8fb0001c 	lw	s0,28(sp)
 3904850:	24060010 	li	a2,16
 3904854:	8f9980a8 	lw	t9,-32600(gp)
 3904858:	00508021 	addu	s0,v0,s0
 390485c:	0320f809 	jalr	t9
 3904860:	02002821 	move	a1,s0
 3904864:	14400004 	bnez	v0,3904878 <nvtpack_enum_partition+0x118>
 3904868:	8fbc0010 	lw	gp,16(sp)
 390486c:	8e130018 	lw	s3,24(s0)
 3904870:	10000008 	b	3904894 <nvtpack_enum_partition+0x134>
 3904874:	2610001c 	addiu	s0,s0,28
 3904878:	8f848044 	lw	a0,-32700(gp)
 390487c:	2405fffe 	li	a1,-2
 3904880:	8f998040 	lw	t9,-32704(gp)
 3904884:	0320f809 	jalr	t9
 3904888:	248451c4 	addiu	a0,a0,20932
 390488c:	1000001d 	b	3904904 <nvtpack_enum_partition+0x1a4>
 3904890:	2402fffe 	li	v0,-2
 3904894:	00009021 	move	s2,zero
 3904898:	10000003 	b	39048a8 <nvtpack_enum_partition+0x148>
 390489c:	27b40018 	addiu	s4,sp,24
 39048a0:	26520001 	addiu	s2,s2,1
 39048a4:	2610000c 	addiu	s0,s0,12
 39048a8:	0253102a 	slt	v0,s2,s3
 39048ac:	10400015 	beqz	v0,3904904 <nvtpack_enum_partition+0x1a4>
 39048b0:	00001021 	move	v0,zero
 39048b4:	8e030000 	lw	v1,0(s0)
 39048b8:	8e220000 	lw	v0,0(s1)
 39048bc:	8e39000c 	lw	t9,12(s1)
 39048c0:	00431021 	addu	v0,v0,v1
 39048c4:	afa20018 	sw	v0,24(sp)
 39048c8:	8e020004 	lw	v0,4(s0)
 39048cc:	1320fff4 	beqz	t9,39048a0 <nvtpack_enum_partition+0x140>
 39048d0:	afa2001c 	sw	v0,28(sp)
 39048d4:	8e040008 	lw	a0,8(s0)
 39048d8:	02802821 	move	a1,s4
 39048dc:	0320f809 	jalr	t9
 39048e0:	8e260008 	lw	a2,8(s1)
 39048e4:	1040ffee 	beqz	v0,39048a0 <nvtpack_enum_partition+0x140>
 39048e8:	8fbc0010 	lw	gp,16(sp)
 39048ec:	8f848044 	lw	a0,-32700(gp)
 39048f0:	2405fffb 	li	a1,-5
 39048f4:	8f998040 	lw	t9,-32704(gp)
 39048f8:	0320f809 	jalr	t9
 39048fc:	248451c4 	addiu	a0,a0,20932
 3904900:	2402fffb 	li	v0,-5
 3904904:	8fbf0034 	lw	ra,52(sp)
 3904908:	8fb40030 	lw	s4,48(sp)
 390490c:	8fb3002c 	lw	s3,44(sp)
 3904910:	8fb20028 	lw	s2,40(sp)
 3904914:	8fb10024 	lw	s1,36(sp)
 3904918:	8fb00020 	lw	s0,32(sp)
 390491c:	03e00008 	jr	ra
 3904920:	27bd0038 	addiu	sp,sp,56

03904924 <int_set_config>:
 3904924:	3c1c0004 	lui	gp,0x4
 3904928:	279c1fdc 	addiu	gp,gp,8156
 390492c:	0399e021 	addu	gp,gp,t9
 3904930:	14800010 	bnez	a0,3904974 <int_set_config+0x50>
 3904934:	00801021 	move	v0,a0
 3904938:	8ca40000 	lw	a0,0(a1)
 390493c:	3c02c008 	lui	v0,0xc008
 3904940:	8ca30014 	lw	v1,20(a1)
 3904944:	ac440000 	sw	a0,0(v0)
 3904948:	8ca40004 	lw	a0,4(a1)
 390494c:	ac440004 	sw	a0,4(v0)
 3904950:	8ca40008 	lw	a0,8(a1)
 3904954:	ac440010 	sw	a0,16(v0)
 3904958:	8ca4000c 	lw	a0,12(a1)
 390495c:	ac440014 	sw	a0,20(v0)
 3904960:	8ca40010 	lw	a0,16(a1)
 3904964:	ac440020 	sw	a0,32(v0)
 3904968:	ac430024 	sw	v1,36(v0)
 390496c:	03e00008 	jr	ra
 3904970:	00000000 	nop
 3904974:	8f848044 	lw	a0,-32700(gp)
 3904978:	00402821 	move	a1,v0
 390497c:	8f998040 	lw	t9,-32704(gp)
 3904980:	03200008 	jr	t9
 3904984:	248451d8 	addiu	a0,a0,20952

03904988 <nvt_ipc_sem_lock>:
 3904988:	3c1c0004 	lui	gp,0x4
 390498c:	279c1f78 	addiu	gp,gp,8056
 3904990:	0399e021 	addu	gp,gp,t9
 3904994:	27bdffd0 	addiu	sp,sp,-48
 3904998:	2c820008 	sltiu	v0,a0,8
 390499c:	afb0001c 	sw	s0,28(sp)
 39049a0:	24100001 	li	s0,1
 39049a4:	afbc0010 	sw	gp,16(sp)
 39049a8:	00802821 	move	a1,a0
 39049ac:	afbf002c 	sw	ra,44(sp)
 39049b0:	00908004 	sllv	s0,s0,a0
 39049b4:	afb30028 	sw	s3,40(sp)
 39049b8:	afb20024 	sw	s2,36(sp)
 39049bc:	14400007 	bnez	v0,39049dc <nvt_ipc_sem_lock+0x54>
 39049c0:	afb10020 	sw	s1,32(sp)
 39049c4:	8f848044 	lw	a0,-32700(gp)
 39049c8:	8f998040 	lw	t9,-32704(gp)
 39049cc:	0320f809 	jalr	t9
 39049d0:	248451fc 	addiu	a0,a0,20988
 39049d4:	10000027 	b	3904a74 <nvt_ipc_sem_lock+0xec>
 39049d8:	2402ffff 	li	v0,-1
 39049dc:	3c110010 	lui	s1,0x10
 39049e0:	26321000 	addiu	s2,s1,4096
 39049e4:	8f998180 	lw	t9,-32384(gp)
 39049e8:	24040001 	li	a0,1
 39049ec:	00002821 	move	a1,zero
 39049f0:	0320f809 	jalr	t9
 39049f4:	3c130010 	lui	s3,0x10
 39049f8:	3c040010 	lui	a0,0x10
 39049fc:	8fbc0010 	lw	gp,16(sp)
 3904a00:	8f998184 	lw	t9,-32380(gp)
 3904a04:	0320f809 	jalr	t9
 3904a08:	02402821 	move	a1,s2
 3904a0c:	8e220004 	lw	v0,4(s1)
 3904a10:	02021024 	and	v0,s0,v0
 3904a14:	10400011 	beqz	v0,3904a5c <nvt_ipc_sem_lock+0xd4>
 3904a18:	8fbc0010 	lw	gp,16(sp)
 3904a1c:	8e620004 	lw	v0,4(s3)
 3904a20:	00108027 	nor	s0,zero,s0
 3904a24:	8f99804c 	lw	t9,-32692(gp)
 3904a28:	3c040010 	lui	a0,0x10
 3904a2c:	02402821 	move	a1,s2
 3904a30:	02028024 	and	s0,s0,v0
 3904a34:	ae700004 	sw	s0,4(s3)
 3904a38:	0320f809 	jalr	t9
 3904a3c:	00000000 	nop
 3904a40:	24040001 	li	a0,1
 3904a44:	8fbc0010 	lw	gp,16(sp)
 3904a48:	8f998188 	lw	t9,-32376(gp)
 3904a4c:	0320f809 	jalr	t9
 3904a50:	00002821 	move	a1,zero
 3904a54:	10000007 	b	3904a74 <nvt_ipc_sem_lock+0xec>
 3904a58:	00001021 	move	v0,zero
 3904a5c:	8f998188 	lw	t9,-32376(gp)
 3904a60:	24040001 	li	a0,1
 3904a64:	0320f809 	jalr	t9
 3904a68:	00002821 	move	a1,zero
 3904a6c:	1000ffdd 	b	39049e4 <nvt_ipc_sem_lock+0x5c>
 3904a70:	8fbc0010 	lw	gp,16(sp)
 3904a74:	8fbf002c 	lw	ra,44(sp)
 3904a78:	8fb30028 	lw	s3,40(sp)
 3904a7c:	8fb20024 	lw	s2,36(sp)
 3904a80:	8fb10020 	lw	s1,32(sp)
 3904a84:	8fb0001c 	lw	s0,28(sp)
 3904a88:	03e00008 	jr	ra
 3904a8c:	27bd0030 	addiu	sp,sp,48

03904a90 <nvt_ipc_sem_unlock>:
 3904a90:	3c1c0004 	lui	gp,0x4
 3904a94:	279c1e70 	addiu	gp,gp,7792
 3904a98:	0399e021 	addu	gp,gp,t9
 3904a9c:	27bdffc0 	addiu	sp,sp,-64
 3904aa0:	2c820008 	sltiu	v0,a0,8
 3904aa4:	afb30038 	sw	s3,56(sp)
 3904aa8:	24130001 	li	s3,1
 3904aac:	afbc0010 	sw	gp,16(sp)
 3904ab0:	afb20034 	sw	s2,52(sp)
 3904ab4:	00939004 	sllv	s2,s3,a0
 3904ab8:	afb10030 	sw	s1,48(sp)
 3904abc:	00808821 	move	s1,a0
 3904ac0:	afbf003c 	sw	ra,60(sp)
 3904ac4:	14400008 	bnez	v0,3904ae8 <nvt_ipc_sem_unlock+0x58>
 3904ac8:	afb0002c 	sw	s0,44(sp)
 3904acc:	8f848044 	lw	a0,-32700(gp)
 3904ad0:	02202821 	move	a1,s1
 3904ad4:	8f998040 	lw	t9,-32704(gp)
 3904ad8:	0320f809 	jalr	t9
 3904adc:	248451fc 	addiu	a0,a0,20988
 3904ae0:	10000038 	b	3904bc4 <nvt_ipc_sem_unlock+0x134>
 3904ae4:	2402ffff 	li	v0,-1
 3904ae8:	3c100010 	lui	s0,0x10
 3904aec:	8f998180 	lw	t9,-32384(gp)
 3904af0:	24040001 	li	a0,1
 3904af4:	0320f809 	jalr	t9
 3904af8:	00002821 	move	a1,zero
 3904afc:	3c040010 	lui	a0,0x10
 3904b00:	8e020004 	lw	v0,4(s0)
 3904b04:	26051000 	addiu	a1,s0,4096
 3904b08:	8fbc0010 	lw	gp,16(sp)
 3904b0c:	02429025 	or	s2,s2,v0
 3904b10:	3c02c004 	lui	v0,0xc004
 3904b14:	ae120004 	sw	s2,4(s0)
 3904b18:	8f99804c 	lw	t9,-32692(gp)
 3904b1c:	8c420108 	lw	v0,264(v0)
 3904b20:	ae02005c 	sw	v0,92(s0)
 3904b24:	26220004 	addiu	v0,s1,4
 3904b28:	00021080 	sll	v0,v0,0x2
 3904b2c:	02021021 	addu	v0,s0,v0
 3904b30:	8c420000 	lw	v0,0(v0)
 3904b34:	1040001b 	beqz	v0,3904ba4 <nvt_ipc_sem_unlock+0x114>
 3904b38:	00000000 	nop
 3904b3c:	0320f809 	jalr	t9
 3904b40:	00000000 	nop
 3904b44:	24040001 	li	a0,1
 3904b48:	8fbc0010 	lw	gp,16(sp)
 3904b4c:	8f998188 	lw	t9,-32376(gp)
 3904b50:	0320f809 	jalr	t9
 3904b54:	00002821 	move	a1,zero
 3904b58:	3402e8d2 	li	v0,0xe8d2
 3904b5c:	8fbc0010 	lw	gp,16(sp)
 3904b60:	3c040010 	lui	a0,0x10
 3904b64:	ae130090 	sw	s3,144(s0)
 3904b68:	36051000 	ori	a1,s0,0x1000
 3904b6c:	ae110094 	sw	s1,148(s0)
 3904b70:	afa2001c 	sw	v0,28(sp)
 3904b74:	26020090 	addiu	v0,s0,144
 3904b78:	8f99804c 	lw	t9,-32692(gp)
 3904b7c:	afa20020 	sw	v0,32(sp)
 3904b80:	24020008 	li	v0,8
 3904b84:	0320f809 	jalr	t9
 3904b88:	afa20024 	sw	v0,36(sp)
 3904b8c:	8fbc0010 	lw	gp,16(sp)
 3904b90:	8f99818c 	lw	t9,-32372(gp)
 3904b94:	0320f809 	jalr	t9
 3904b98:	27a40018 	addiu	a0,sp,24
 3904b9c:	10000009 	b	3904bc4 <nvt_ipc_sem_unlock+0x134>
 3904ba0:	00001021 	move	v0,zero
 3904ba4:	0320f809 	jalr	t9
 3904ba8:	00000000 	nop
 3904bac:	24040001 	li	a0,1
 3904bb0:	8fbc0010 	lw	gp,16(sp)
 3904bb4:	8f998188 	lw	t9,-32376(gp)
 3904bb8:	0320f809 	jalr	t9
 3904bbc:	00002821 	move	a1,zero
 3904bc0:	00001021 	move	v0,zero
 3904bc4:	8fbf003c 	lw	ra,60(sp)
 3904bc8:	8fb30038 	lw	s3,56(sp)
 3904bcc:	8fb20034 	lw	s2,52(sp)
 3904bd0:	8fb10030 	lw	s1,48(sp)
 3904bd4:	8fb0002c 	lw	s0,44(sp)
 3904bd8:	03e00008 	jr	ra
 3904bdc:	27bd0040 	addiu	sp,sp,64

03904be0 <pinmux_config_tv>:
 3904be0:	3c1c0004 	lui	gp,0x4
 3904be4:	279c1d20 	addiu	gp,gp,7456
 3904be8:	0399e021 	addu	gp,gp,t9
 3904bec:	27bdffe0 	addiu	sp,sp,-32
 3904bf0:	3c022000 	lui	v0,0x2000
 3904bf4:	afbc0010 	sw	gp,16(sp)
 3904bf8:	00821024 	and	v0,a0,v0
 3904bfc:	afbf001c 	sw	ra,28(sp)
 3904c00:	10400008 	beqz	v0,3904c24 <pinmux_config_tv+0x44>
 3904c04:	8f83805c 	lw	v1,-32676(gp)
 3904c08:	00802821 	move	a1,a0
 3904c0c:	8f848044 	lw	a0,-32700(gp)
 3904c10:	8f998040 	lw	t9,-32704(gp)
 3904c14:	0320f809 	jalr	t9
 3904c18:	24845210 	addiu	a0,a0,21008
 3904c1c:	10000002 	b	3904c28 <pinmux_config_tv+0x48>
 3904c20:	2402ffdf 	li	v0,-33
 3904c24:	ac64f6fc 	sw	a0,-2308(v1)
 3904c28:	8fbf001c 	lw	ra,28(sp)
 3904c2c:	03e00008 	jr	ra
 3904c30:	27bd0020 	addiu	sp,sp,32

03904c34 <pinmux_config_lcd>:
 3904c34:	3c1c0004 	lui	gp,0x4
 3904c38:	279c1ccc 	addiu	gp,gp,7372
 3904c3c:	0399e021 	addu	gp,gp,t9
 3904c40:	27bdffe0 	addiu	sp,sp,-32
 3904c44:	3c023000 	lui	v0,0x3000
 3904c48:	afbc0010 	sw	gp,16(sp)
 3904c4c:	00821824 	and	v1,a0,v0
 3904c50:	afbf001c 	sw	ra,28(sp)
 3904c54:	54620008 	bnel	v1,v0,3904c78 <pinmux_config_lcd+0x44>
 3904c58:	8f82805c 	lw	v0,-32676(gp)
 3904c5c:	00802821 	move	a1,a0
 3904c60:	8f848044 	lw	a0,-32700(gp)
 3904c64:	8f998040 	lw	t9,-32704(gp)
 3904c68:	0320f809 	jalr	t9
 3904c6c:	24845228 	addiu	a0,a0,21032
 3904c70:	10000003 	b	3904c80 <pinmux_config_lcd+0x4c>
 3904c74:	2402ffdf 	li	v0,-33
 3904c78:	ac44f6f4 	sw	a0,-2316(v0)
 3904c7c:	00001021 	move	v0,zero
 3904c80:	8fbf001c 	lw	ra,28(sp)
 3904c84:	03e00008 	jr	ra
 3904c88:	27bd0020 	addiu	sp,sp,32

03904c8c <pinmux_config_audio>:
 3904c8c:	3c1c0004 	lui	gp,0x4
 3904c90:	279c1c74 	addiu	gp,gp,7284
 3904c94:	0399e021 	addu	gp,gp,t9
 3904c98:	27bdffe0 	addiu	sp,sp,-32
 3904c9c:	30820001 	andi	v0,a0,0x1
 3904ca0:	afbc0010 	sw	gp,16(sp)
 3904ca4:	afbf001c 	sw	ra,28(sp)
 3904ca8:	1040002b 	beqz	v0,3904d58 <pinmux_config_audio+0xcc>
 3904cac:	30820010 	andi	v0,a0,0x10
 3904cb0:	8f828190 	lw	v0,-32368(gp)
 3904cb4:	24030004 	li	v1,4
 3904cb8:	8c420000 	lw	v0,0(v0)
 3904cbc:	3042000c 	andi	v0,v0,0xc
 3904cc0:	54430004 	bnel	v0,v1,3904cd4 <pinmux_config_audio+0x48>
 3904cc4:	8f828194 	lw	v0,-32364(gp)
 3904cc8:	8f848044 	lw	a0,-32700(gp)
 3904ccc:	10000009 	b	3904cf4 <pinmux_config_audio+0x68>
 3904cd0:	24845240 	addiu	a0,a0,21056
 3904cd4:	8c430000 	lw	v1,0(v0)
 3904cd8:	3c020c00 	lui	v0,0xc00
 3904cdc:	00431024 	and	v0,v0,v1
 3904ce0:	3c030400 	lui	v1,0x400
 3904ce4:	54430008 	bnel	v0,v1,3904d08 <pinmux_config_audio+0x7c>
 3904ce8:	8f828198 	lw	v0,-32360(gp)
 3904cec:	8f848044 	lw	a0,-32700(gp)
 3904cf0:	24845260 	addiu	a0,a0,21088
 3904cf4:	8f998040 	lw	t9,-32704(gp)
 3904cf8:	0320f809 	jalr	t9
 3904cfc:	00000000 	nop
 3904d00:	1000005e 	b	3904e7c <pinmux_config_audio+0x1f0>
 3904d04:	2402ffc1 	li	v0,-63
 3904d08:	24031000 	li	v1,4096
 3904d0c:	8c420000 	lw	v0,0(v0)
 3904d10:	30423000 	andi	v0,v0,0x3000
 3904d14:	14430004 	bne	v0,v1,3904d28 <pinmux_config_audio+0x9c>
 3904d18:	8f83819c 	lw	v1,-32356(gp)
 3904d1c:	8f848044 	lw	a0,-32700(gp)
 3904d20:	1000fff4 	b	3904cf4 <pinmux_config_audio+0x68>
 3904d24:	24845280 	addiu	a0,a0,21120
 3904d28:	24050001 	li	a1,1
 3904d2c:	8c620000 	lw	v0,0(v1)
 3904d30:	7c02a504 	ins	v0,zero,0x14,0x1
 3904d34:	7c02ad44 	ins	v0,zero,0x15,0x1
 3904d38:	7c02b584 	ins	v0,zero,0x16,0x1
 3904d3c:	7c02bdc4 	ins	v0,zero,0x17,0x1
 3904d40:	ac620000 	sw	v0,0(v1)
 3904d44:	8f8281a0 	lw	v0,-32352(gp)
 3904d48:	8c430000 	lw	v1,0(v0)
 3904d4c:	7ca30004 	ins	v1,a1,0x0,0x1
 3904d50:	ac430000 	sw	v1,0(v0)
 3904d54:	30820010 	andi	v0,a0,0x10
 3904d58:	1040001d 	beqz	v0,3904dd0 <pinmux_config_audio+0x144>
 3904d5c:	30820100 	andi	v0,a0,0x100
 3904d60:	8f8281a4 	lw	v0,-32348(gp)
 3904d64:	8c430000 	lw	v1,0(v0)
 3904d68:	3c02000c 	lui	v0,0xc
 3904d6c:	00431024 	and	v0,v0,v1
 3904d70:	3c030008 	lui	v1,0x8
 3904d74:	54430004 	bnel	v0,v1,3904d88 <pinmux_config_audio+0xfc>
 3904d78:	8f828194 	lw	v0,-32364(gp)
 3904d7c:	8f848044 	lw	a0,-32700(gp)
 3904d80:	1000ffdc 	b	3904cf4 <pinmux_config_audio+0x68>
 3904d84:	248452a0 	addiu	a0,a0,21152
 3904d88:	8c430000 	lw	v1,0(v0)
 3904d8c:	3c023000 	lui	v0,0x3000
 3904d90:	00431024 	and	v0,v0,v1
 3904d94:	3c031000 	lui	v1,0x1000
 3904d98:	54430004 	bnel	v0,v1,3904dac <pinmux_config_audio+0x120>
 3904d9c:	8f82819c 	lw	v0,-32356(gp)
 3904da0:	8f848044 	lw	a0,-32700(gp)
 3904da4:	1000ffd3 	b	3904cf4 <pinmux_config_audio+0x68>
 3904da8:	248452c4 	addiu	a0,a0,21188
 3904dac:	24050001 	li	a1,1
 3904db0:	8c430000 	lw	v1,0(v0)
 3904db4:	7c039cc4 	ins	v1,zero,0x13,0x1
 3904db8:	ac430000 	sw	v1,0(v0)
 3904dbc:	8f8281a0 	lw	v0,-32352(gp)
 3904dc0:	8c430000 	lw	v1,0(v0)
 3904dc4:	7ca31084 	ins	v1,a1,0x2,0x1
 3904dc8:	ac430000 	sw	v1,0(v0)
 3904dcc:	30820100 	andi	v0,a0,0x100
 3904dd0:	1040002a 	beqz	v0,3904e7c <pinmux_config_audio+0x1f0>
 3904dd4:	8f8581a0 	lw	a1,-32352(gp)
 3904dd8:	24020400 	li	v0,1024
 3904ddc:	8ca30000 	lw	v1,0(a1)
 3904de0:	30640c00 	andi	a0,v1,0xc00
 3904de4:	54820004 	bnel	a0,v0,3904df8 <pinmux_config_audio+0x16c>
 3904de8:	30620100 	andi	v0,v1,0x100
 3904dec:	8f848044 	lw	a0,-32700(gp)
 3904df0:	1000ffc0 	b	3904cf4 <pinmux_config_audio+0x68>
 3904df4:	248452e8 	addiu	a0,a0,21224
 3904df8:	50400004 	beqzl	v0,3904e0c <pinmux_config_audio+0x180>
 3904dfc:	8f828194 	lw	v0,-32364(gp)
 3904e00:	8f848044 	lw	a0,-32700(gp)
 3904e04:	1000ffbb 	b	3904cf4 <pinmux_config_audio+0x68>
 3904e08:	24845310 	addiu	a0,a0,21264
 3904e0c:	3c040300 	lui	a0,0x300
 3904e10:	3c060100 	lui	a2,0x100
 3904e14:	8c420000 	lw	v0,0(v0)
 3904e18:	00442024 	and	a0,v0,a0
 3904e1c:	54860004 	bnel	a0,a2,3904e30 <pinmux_config_audio+0x1a4>
 3904e20:	8f8481a4 	lw	a0,-32348(gp)
 3904e24:	8f848044 	lw	a0,-32700(gp)
 3904e28:	1000ffb2 	b	3904cf4 <pinmux_config_audio+0x68>
 3904e2c:	24845334 	addiu	a0,a0,21300
 3904e30:	8c840000 	lw	a0,0(a0)
 3904e34:	7c840400 	ext	a0,a0,0x10,0x1
 3904e38:	50800004 	beqzl	a0,3904e4c <pinmux_config_audio+0x1c0>
 3904e3c:	30428000 	andi	v0,v0,0x8000
 3904e40:	8f848044 	lw	a0,-32700(gp)
 3904e44:	1000ffab 	b	3904cf4 <pinmux_config_audio+0x68>
 3904e48:	24845358 	addiu	a0,a0,21336
 3904e4c:	10400004 	beqz	v0,3904e60 <pinmux_config_audio+0x1d4>
 3904e50:	8f86819c 	lw	a2,-32356(gp)
 3904e54:	8f848044 	lw	a0,-32700(gp)
 3904e58:	1000ffa6 	b	3904cf4 <pinmux_config_audio+0x68>
 3904e5c:	24845384 	addiu	a0,a0,21380
 3904e60:	8cc40000 	lw	a0,0(a2)
 3904e64:	7c04c604 	ins	a0,zero,0x18,0x1
 3904e68:	7c04ce44 	ins	a0,zero,0x19,0x1
 3904e6c:	acc40000 	sw	a0,0(a2)
 3904e70:	24040001 	li	a0,1
 3904e74:	7c8318c4 	ins	v1,a0,0x3,0x1
 3904e78:	aca30000 	sw	v1,0(a1)
 3904e7c:	8fbf001c 	lw	ra,28(sp)
 3904e80:	03e00008 	jr	ra
 3904e84:	27bd0020 	addiu	sp,sp,32

03904e88 <pinmux_config_pwm>:
 3904e88:	3c1c0004 	lui	gp,0x4
 3904e8c:	279c1a78 	addiu	gp,gp,6776
 3904e90:	0399e021 	addu	gp,gp,t9
 3904e94:	27bdffe0 	addiu	sp,sp,-32
 3904e98:	30820001 	andi	v0,a0,0x1
 3904e9c:	afbc0010 	sw	gp,16(sp)
 3904ea0:	afbf001c 	sw	ra,28(sp)
 3904ea4:	10400013 	beqz	v0,3904ef4 <pinmux_config_pwm+0x6c>
 3904ea8:	00802821 	move	a1,a0
 3904eac:	8f8281a4 	lw	v0,-32348(gp)
 3904eb0:	8c430000 	lw	v1,0(v0)
 3904eb4:	3c020300 	lui	v0,0x300
 3904eb8:	00431024 	and	v0,v0,v1
 3904ebc:	3c030100 	lui	v1,0x100
 3904ec0:	54430004 	bnel	v0,v1,3904ed4 <pinmux_config_pwm+0x4c>
 3904ec4:	8f82819c 	lw	v0,-32356(gp)
 3904ec8:	8f848044 	lw	a0,-32700(gp)
 3904ecc:	10000015 	b	3904f24 <pinmux_config_pwm+0x9c>
 3904ed0:	248453ac 	addiu	a0,a0,21420
 3904ed4:	24040001 	li	a0,1
 3904ed8:	8c430000 	lw	v1,0(v0)
 3904edc:	7c030004 	ins	v1,zero,0x0,0x1
 3904ee0:	ac430000 	sw	v1,0(v0)
 3904ee4:	8f828194 	lw	v0,-32364(gp)
 3904ee8:	8c430000 	lw	v1,0(v0)
 3904eec:	7c830004 	ins	v1,a0,0x0,0x1
 3904ef0:	ac430000 	sw	v1,0(v0)
 3904ef4:	30a20002 	andi	v0,a1,0x2
 3904ef8:	10400018 	beqz	v0,3904f5c <pinmux_config_pwm+0xd4>
 3904efc:	30a20004 	andi	v0,a1,0x4
 3904f00:	8f8281a4 	lw	v0,-32348(gp)
 3904f04:	8c430000 	lw	v1,0(v0)
 3904f08:	3c020c00 	lui	v0,0xc00
 3904f0c:	00431024 	and	v0,v0,v1
 3904f10:	3c030400 	lui	v1,0x400
 3904f14:	54430008 	bnel	v0,v1,3904f38 <pinmux_config_pwm+0xb0>
 3904f18:	8f82819c 	lw	v0,-32356(gp)
 3904f1c:	8f848044 	lw	a0,-32700(gp)
 3904f20:	248453d4 	addiu	a0,a0,21460
 3904f24:	8f998040 	lw	t9,-32704(gp)
 3904f28:	0320f809 	jalr	t9
 3904f2c:	00000000 	nop
 3904f30:	100001cc 	b	3905664 <pinmux_config_pwm+0x7dc>
 3904f34:	2402ffc1 	li	v0,-63
 3904f38:	24040001 	li	a0,1
 3904f3c:	8c430000 	lw	v1,0(v0)
 3904f40:	7c030844 	ins	v1,zero,0x1,0x1
 3904f44:	ac430000 	sw	v1,0(v0)
 3904f48:	8f828194 	lw	v0,-32364(gp)
 3904f4c:	8c430000 	lw	v1,0(v0)
 3904f50:	7c830844 	ins	v1,a0,0x1,0x1
 3904f54:	ac430000 	sw	v1,0(v0)
 3904f58:	30a20004 	andi	v0,a1,0x4
 3904f5c:	10400014 	beqz	v0,3904fb0 <pinmux_config_pwm+0x128>
 3904f60:	30a20008 	andi	v0,a1,0x8
 3904f64:	8f8281a4 	lw	v0,-32348(gp)
 3904f68:	8c430000 	lw	v1,0(v0)
 3904f6c:	3c023000 	lui	v0,0x3000
 3904f70:	00431024 	and	v0,v0,v1
 3904f74:	3c031000 	lui	v1,0x1000
 3904f78:	54430004 	bnel	v0,v1,3904f8c <pinmux_config_pwm+0x104>
 3904f7c:	8f82819c 	lw	v0,-32356(gp)
 3904f80:	8f848044 	lw	a0,-32700(gp)
 3904f84:	1000ffe7 	b	3904f24 <pinmux_config_pwm+0x9c>
 3904f88:	248453fc 	addiu	a0,a0,21500
 3904f8c:	24040001 	li	a0,1
 3904f90:	8c430000 	lw	v1,0(v0)
 3904f94:	7c031084 	ins	v1,zero,0x2,0x1
 3904f98:	ac430000 	sw	v1,0(v0)
 3904f9c:	8f828194 	lw	v0,-32364(gp)
 3904fa0:	8c430000 	lw	v1,0(v0)
 3904fa4:	7c831084 	ins	v1,a0,0x2,0x1
 3904fa8:	ac430000 	sw	v1,0(v0)
 3904fac:	30a20008 	andi	v0,a1,0x8
 3904fb0:	10400014 	beqz	v0,3905004 <pinmux_config_pwm+0x17c>
 3904fb4:	30a20010 	andi	v0,a1,0x10
 3904fb8:	8f8281a4 	lw	v0,-32348(gp)
 3904fbc:	8c430000 	lw	v1,0(v0)
 3904fc0:	3c02c000 	lui	v0,0xc000
 3904fc4:	00431024 	and	v0,v0,v1
 3904fc8:	3c034000 	lui	v1,0x4000
 3904fcc:	54430004 	bnel	v0,v1,3904fe0 <pinmux_config_pwm+0x158>
 3904fd0:	8f82819c 	lw	v0,-32356(gp)
 3904fd4:	8f848044 	lw	a0,-32700(gp)
 3904fd8:	1000ffd2 	b	3904f24 <pinmux_config_pwm+0x9c>
 3904fdc:	24845428 	addiu	a0,a0,21544
 3904fe0:	24040001 	li	a0,1
 3904fe4:	8c430000 	lw	v1,0(v0)
 3904fe8:	7c0318c4 	ins	v1,zero,0x3,0x1
 3904fec:	ac430000 	sw	v1,0(v0)
 3904ff0:	8f828194 	lw	v0,-32364(gp)
 3904ff4:	8c430000 	lw	v1,0(v0)
 3904ff8:	7c8318c4 	ins	v1,a0,0x3,0x1
 3904ffc:	ac430000 	sw	v1,0(v0)
 3905000:	30a20010 	andi	v0,a1,0x10
 3905004:	10400013 	beqz	v0,3905054 <pinmux_config_pwm+0x1cc>
 3905008:	30a20020 	andi	v0,a1,0x20
 390500c:	8f828190 	lw	v0,-32368(gp)
 3905010:	24030040 	li	v1,64
 3905014:	8c420000 	lw	v0,0(v0)
 3905018:	304200c0 	andi	v0,v0,0xc0
 390501c:	54430004 	bnel	v0,v1,3905030 <pinmux_config_pwm+0x1a8>
 3905020:	8f82819c 	lw	v0,-32356(gp)
 3905024:	8f848044 	lw	a0,-32700(gp)
 3905028:	1000ffbe 	b	3904f24 <pinmux_config_pwm+0x9c>
 390502c:	24845454 	addiu	a0,a0,21588
 3905030:	24040001 	li	a0,1
 3905034:	8c430000 	lw	v1,0(v0)
 3905038:	7c032104 	ins	v1,zero,0x4,0x1
 390503c:	ac430000 	sw	v1,0(v0)
 3905040:	8f828194 	lw	v0,-32364(gp)
 3905044:	8c430000 	lw	v1,0(v0)
 3905048:	7c832104 	ins	v1,a0,0x4,0x1
 390504c:	ac430000 	sw	v1,0(v0)
 3905050:	30a20020 	andi	v0,a1,0x20
 3905054:	10400013 	beqz	v0,39050a4 <pinmux_config_pwm+0x21c>
 3905058:	30a20040 	andi	v0,a1,0x40
 390505c:	8f828190 	lw	v0,-32368(gp)
 3905060:	24030040 	li	v1,64
 3905064:	8c420000 	lw	v0,0(v0)
 3905068:	304200c0 	andi	v0,v0,0xc0
 390506c:	54430004 	bnel	v0,v1,3905080 <pinmux_config_pwm+0x1f8>
 3905070:	8f82819c 	lw	v0,-32356(gp)
 3905074:	8f848044 	lw	a0,-32700(gp)
 3905078:	1000ffaa 	b	3904f24 <pinmux_config_pwm+0x9c>
 390507c:	2484547c 	addiu	a0,a0,21628
 3905080:	24040001 	li	a0,1
 3905084:	8c430000 	lw	v1,0(v0)
 3905088:	7c032944 	ins	v1,zero,0x5,0x1
 390508c:	ac430000 	sw	v1,0(v0)
 3905090:	8f828194 	lw	v0,-32364(gp)
 3905094:	8c430000 	lw	v1,0(v0)
 3905098:	7c832944 	ins	v1,a0,0x5,0x1
 390509c:	ac430000 	sw	v1,0(v0)
 39050a0:	30a20040 	andi	v0,a1,0x40
 39050a4:	10400013 	beqz	v0,39050f4 <pinmux_config_pwm+0x26c>
 39050a8:	30a20080 	andi	v0,a1,0x80
 39050ac:	8f828190 	lw	v0,-32368(gp)
 39050b0:	24030440 	li	v1,1088
 39050b4:	8c420000 	lw	v0,0(v0)
 39050b8:	304204c0 	andi	v0,v0,0x4c0
 39050bc:	54430004 	bnel	v0,v1,39050d0 <pinmux_config_pwm+0x248>
 39050c0:	8f82819c 	lw	v0,-32356(gp)
 39050c4:	8f848044 	lw	a0,-32700(gp)
 39050c8:	1000ff96 	b	3904f24 <pinmux_config_pwm+0x9c>
 39050cc:	248454a4 	addiu	a0,a0,21668
 39050d0:	24040001 	li	a0,1
 39050d4:	8c430000 	lw	v1,0(v0)
 39050d8:	7c033184 	ins	v1,zero,0x6,0x1
 39050dc:	ac430000 	sw	v1,0(v0)
 39050e0:	8f828194 	lw	v0,-32364(gp)
 39050e4:	8c430000 	lw	v1,0(v0)
 39050e8:	7c833184 	ins	v1,a0,0x6,0x1
 39050ec:	ac430000 	sw	v1,0(v0)
 39050f0:	30a20080 	andi	v0,a1,0x80
 39050f4:	10400013 	beqz	v0,3905144 <pinmux_config_pwm+0x2bc>
 39050f8:	30a20100 	andi	v0,a1,0x100
 39050fc:	8f828190 	lw	v0,-32368(gp)
 3905100:	24030440 	li	v1,1088
 3905104:	8c420000 	lw	v0,0(v0)
 3905108:	304204c0 	andi	v0,v0,0x4c0
 390510c:	54430004 	bnel	v0,v1,3905120 <pinmux_config_pwm+0x298>
 3905110:	8f82819c 	lw	v0,-32356(gp)
 3905114:	8f848044 	lw	a0,-32700(gp)
 3905118:	1000ff82 	b	3904f24 <pinmux_config_pwm+0x9c>
 390511c:	248454cc 	addiu	a0,a0,21708
 3905120:	24040001 	li	a0,1
 3905124:	8c430000 	lw	v1,0(v0)
 3905128:	7c0339c4 	ins	v1,zero,0x7,0x1
 390512c:	ac430000 	sw	v1,0(v0)
 3905130:	8f828194 	lw	v0,-32364(gp)
 3905134:	8c430000 	lw	v1,0(v0)
 3905138:	7c8339c4 	ins	v1,a0,0x7,0x1
 390513c:	ac430000 	sw	v1,0(v0)
 3905140:	30a20100 	andi	v0,a1,0x100
 3905144:	10400013 	beqz	v0,3905194 <pinmux_config_pwm+0x30c>
 3905148:	30a20200 	andi	v0,a1,0x200
 390514c:	8f828190 	lw	v0,-32368(gp)
 3905150:	24030020 	li	v1,32
 3905154:	8c420000 	lw	v0,0(v0)
 3905158:	30420030 	andi	v0,v0,0x30
 390515c:	54430004 	bnel	v0,v1,3905170 <pinmux_config_pwm+0x2e8>
 3905160:	8f82819c 	lw	v0,-32356(gp)
 3905164:	8f848044 	lw	a0,-32700(gp)
 3905168:	1000ff6e 	b	3904f24 <pinmux_config_pwm+0x9c>
 390516c:	248454f4 	addiu	a0,a0,21748
 3905170:	24040001 	li	a0,1
 3905174:	8c430000 	lw	v1,0(v0)
 3905178:	7c034204 	ins	v1,zero,0x8,0x1
 390517c:	ac430000 	sw	v1,0(v0)
 3905180:	8f828194 	lw	v0,-32364(gp)
 3905184:	8c430000 	lw	v1,0(v0)
 3905188:	7c834204 	ins	v1,a0,0x8,0x1
 390518c:	ac430000 	sw	v1,0(v0)
 3905190:	30a20200 	andi	v0,a1,0x200
 3905194:	10400013 	beqz	v0,39051e4 <pinmux_config_pwm+0x35c>
 3905198:	30a20400 	andi	v0,a1,0x400
 390519c:	8f828190 	lw	v0,-32368(gp)
 39051a0:	24030020 	li	v1,32
 39051a4:	8c420000 	lw	v0,0(v0)
 39051a8:	30420030 	andi	v0,v0,0x30
 39051ac:	54430004 	bnel	v0,v1,39051c0 <pinmux_config_pwm+0x338>
 39051b0:	8f82819c 	lw	v0,-32356(gp)
 39051b4:	8f848044 	lw	a0,-32700(gp)
 39051b8:	1000ff5a 	b	3904f24 <pinmux_config_pwm+0x9c>
 39051bc:	2484551c 	addiu	a0,a0,21788
 39051c0:	24040001 	li	a0,1
 39051c4:	8c430000 	lw	v1,0(v0)
 39051c8:	7c034a44 	ins	v1,zero,0x9,0x1
 39051cc:	ac430000 	sw	v1,0(v0)
 39051d0:	8f828194 	lw	v0,-32364(gp)
 39051d4:	8c430000 	lw	v1,0(v0)
 39051d8:	7c834a44 	ins	v1,a0,0x9,0x1
 39051dc:	ac430000 	sw	v1,0(v0)
 39051e0:	30a20400 	andi	v0,a1,0x400
 39051e4:	10400013 	beqz	v0,3905234 <pinmux_config_pwm+0x3ac>
 39051e8:	30a20800 	andi	v0,a1,0x800
 39051ec:	8f828190 	lw	v0,-32368(gp)
 39051f0:	24030220 	li	v1,544
 39051f4:	8c420000 	lw	v0,0(v0)
 39051f8:	30420230 	andi	v0,v0,0x230
 39051fc:	54430004 	bnel	v0,v1,3905210 <pinmux_config_pwm+0x388>
 3905200:	8f82819c 	lw	v0,-32356(gp)
 3905204:	8f848044 	lw	a0,-32700(gp)
 3905208:	1000ff46 	b	3904f24 <pinmux_config_pwm+0x9c>
 390520c:	24845544 	addiu	a0,a0,21828
 3905210:	24040001 	li	a0,1
 3905214:	8c430000 	lw	v1,0(v0)
 3905218:	7c035284 	ins	v1,zero,0xa,0x1
 390521c:	ac430000 	sw	v1,0(v0)
 3905220:	8f828194 	lw	v0,-32364(gp)
 3905224:	8c430000 	lw	v1,0(v0)
 3905228:	7c835284 	ins	v1,a0,0xa,0x1
 390522c:	ac430000 	sw	v1,0(v0)
 3905230:	30a20800 	andi	v0,a1,0x800
 3905234:	10400013 	beqz	v0,3905284 <pinmux_config_pwm+0x3fc>
 3905238:	30a21000 	andi	v0,a1,0x1000
 390523c:	8f828190 	lw	v0,-32368(gp)
 3905240:	24030220 	li	v1,544
 3905244:	8c420000 	lw	v0,0(v0)
 3905248:	30420230 	andi	v0,v0,0x230
 390524c:	54430004 	bnel	v0,v1,3905260 <pinmux_config_pwm+0x3d8>
 3905250:	8f82819c 	lw	v0,-32356(gp)
 3905254:	8f848044 	lw	a0,-32700(gp)
 3905258:	1000ff32 	b	3904f24 <pinmux_config_pwm+0x9c>
 390525c:	2484556c 	addiu	a0,a0,21868
 3905260:	24040001 	li	a0,1
 3905264:	8c430000 	lw	v1,0(v0)
 3905268:	7c035ac4 	ins	v1,zero,0xb,0x1
 390526c:	ac430000 	sw	v1,0(v0)
 3905270:	8f828194 	lw	v0,-32364(gp)
 3905274:	8c430000 	lw	v1,0(v0)
 3905278:	7c835ac4 	ins	v1,a0,0xb,0x1
 390527c:	ac430000 	sw	v1,0(v0)
 3905280:	30a21000 	andi	v0,a1,0x1000
 3905284:	1040001b 	beqz	v0,39052f4 <pinmux_config_pwm+0x46c>
 3905288:	30a22000 	andi	v0,a1,0x2000
 390528c:	8f828198 	lw	v0,-32360(gp)
 3905290:	24030200 	li	v1,512
 3905294:	8c420000 	lw	v0,0(v0)
 3905298:	30420300 	andi	v0,v0,0x300
 390529c:	54430004 	bnel	v0,v1,39052b0 <pinmux_config_pwm+0x428>
 39052a0:	8f828190 	lw	v0,-32368(gp)
 39052a4:	8f848044 	lw	a0,-32700(gp)
 39052a8:	1000ff1e 	b	3904f24 <pinmux_config_pwm+0x9c>
 39052ac:	24845594 	addiu	a0,a0,21908
 39052b0:	24030010 	li	v1,16
 39052b4:	8c420000 	lw	v0,0(v0)
 39052b8:	30420030 	andi	v0,v0,0x30
 39052bc:	54430004 	bnel	v0,v1,39052d0 <pinmux_config_pwm+0x448>
 39052c0:	8f82819c 	lw	v0,-32356(gp)
 39052c4:	8f848044 	lw	a0,-32700(gp)
 39052c8:	1000ff16 	b	3904f24 <pinmux_config_pwm+0x9c>
 39052cc:	248455bc 	addiu	a0,a0,21948
 39052d0:	24040001 	li	a0,1
 39052d4:	8c430000 	lw	v1,0(v0)
 39052d8:	7c037bc4 	ins	v1,zero,0xf,0x1
 39052dc:	ac430000 	sw	v1,0(v0)
 39052e0:	8f828194 	lw	v0,-32364(gp)
 39052e4:	8c430000 	lw	v1,0(v0)
 39052e8:	7c836304 	ins	v1,a0,0xc,0x1
 39052ec:	ac430000 	sw	v1,0(v0)
 39052f0:	30a22000 	andi	v0,a1,0x2000
 39052f4:	1040001b 	beqz	v0,3905364 <pinmux_config_pwm+0x4dc>
 39052f8:	30a24000 	andi	v0,a1,0x4000
 39052fc:	8f828198 	lw	v0,-32360(gp)
 3905300:	24030200 	li	v1,512
 3905304:	8c420000 	lw	v0,0(v0)
 3905308:	30420300 	andi	v0,v0,0x300
 390530c:	54430004 	bnel	v0,v1,3905320 <pinmux_config_pwm+0x498>
 3905310:	8f828190 	lw	v0,-32368(gp)
 3905314:	8f848044 	lw	a0,-32700(gp)
 3905318:	1000ff02 	b	3904f24 <pinmux_config_pwm+0x9c>
 390531c:	248455e4 	addiu	a0,a0,21988
 3905320:	24030010 	li	v1,16
 3905324:	8c420000 	lw	v0,0(v0)
 3905328:	30420030 	andi	v0,v0,0x30
 390532c:	54430004 	bnel	v0,v1,3905340 <pinmux_config_pwm+0x4b8>
 3905330:	8f82819c 	lw	v0,-32356(gp)
 3905334:	8f848044 	lw	a0,-32700(gp)
 3905338:	1000fefa 	b	3904f24 <pinmux_config_pwm+0x9c>
 390533c:	2484560c 	addiu	a0,a0,22028
 3905340:	24040001 	li	a0,1
 3905344:	8c430000 	lw	v1,0(v0)
 3905348:	7c038404 	ins	v1,zero,0x10,0x1
 390534c:	ac430000 	sw	v1,0(v0)
 3905350:	8f828194 	lw	v0,-32364(gp)
 3905354:	8c430000 	lw	v1,0(v0)
 3905358:	7c836b44 	ins	v1,a0,0xd,0x1
 390535c:	ac430000 	sw	v1,0(v0)
 3905360:	30a24000 	andi	v0,a1,0x4000
 3905364:	1040001b 	beqz	v0,39053d4 <pinmux_config_pwm+0x54c>
 3905368:	30a28000 	andi	v0,a1,0x8000
 390536c:	8f828198 	lw	v0,-32360(gp)
 3905370:	24030200 	li	v1,512
 3905374:	8c420000 	lw	v0,0(v0)
 3905378:	30420300 	andi	v0,v0,0x300
 390537c:	54430004 	bnel	v0,v1,3905390 <pinmux_config_pwm+0x508>
 3905380:	8f828190 	lw	v0,-32368(gp)
 3905384:	8f848044 	lw	a0,-32700(gp)
 3905388:	1000fee6 	b	3904f24 <pinmux_config_pwm+0x9c>
 390538c:	24845634 	addiu	a0,a0,22068
 3905390:	24030210 	li	v1,528
 3905394:	8c420000 	lw	v0,0(v0)
 3905398:	30420230 	andi	v0,v0,0x230
 390539c:	54430004 	bnel	v0,v1,39053b0 <pinmux_config_pwm+0x528>
 39053a0:	8f82819c 	lw	v0,-32356(gp)
 39053a4:	8f848044 	lw	a0,-32700(gp)
 39053a8:	1000fede 	b	3904f24 <pinmux_config_pwm+0x9c>
 39053ac:	2484565c 	addiu	a0,a0,22108
 39053b0:	24040001 	li	a0,1
 39053b4:	8c430000 	lw	v1,0(v0)
 39053b8:	7c038c44 	ins	v1,zero,0x11,0x1
 39053bc:	ac430000 	sw	v1,0(v0)
 39053c0:	8f828194 	lw	v0,-32364(gp)
 39053c4:	8c430000 	lw	v1,0(v0)
 39053c8:	7c837384 	ins	v1,a0,0xe,0x1
 39053cc:	ac430000 	sw	v1,0(v0)
 39053d0:	30a28000 	andi	v0,a1,0x8000
 39053d4:	10400013 	beqz	v0,3905424 <pinmux_config_pwm+0x59c>
 39053d8:	3c020300 	lui	v0,0x300
 39053dc:	8f828198 	lw	v0,-32360(gp)
 39053e0:	24034000 	li	v1,16384
 39053e4:	8c420000 	lw	v0,0(v0)
 39053e8:	3042c000 	andi	v0,v0,0xc000
 39053ec:	54430004 	bnel	v0,v1,3905400 <pinmux_config_pwm+0x578>
 39053f0:	8f82819c 	lw	v0,-32356(gp)
 39053f4:	8f848044 	lw	a0,-32700(gp)
 39053f8:	1000feca 	b	3904f24 <pinmux_config_pwm+0x9c>
 39053fc:	24845684 	addiu	a0,a0,22148
 3905400:	24040001 	li	a0,1
 3905404:	8c430000 	lw	v1,0(v0)
 3905408:	7c03ce44 	ins	v1,zero,0x19,0x1
 390540c:	ac430000 	sw	v1,0(v0)
 3905410:	8f828194 	lw	v0,-32364(gp)
